

Microchip MPLAB XC8 Assembler V2.40 build 20220703182018 
                                                                                               Fri Nov 11 10:22:17 2022

Microchip MPLAB XC8 C Compiler v2.40 (Free license) build 20220703182018 Og1 
     1                           	processor	16F887
     2                           	pagewidth 120
     3                           	opt	flic
     4                           	psect	idataCOMMON,global,class=CODE,delta=2,noexec
     5                           	psect	idataBANK0,global,class=CODE,delta=2,noexec
     6                           	psect	cinit,global,class=CODE,merge=1,delta=2
     7                           	psect	bssCOMMON,global,class=COMMON,space=1,delta=1,noexec
     8                           	psect	dataCOMMON,global,class=COMMON,space=1,delta=1,noexec
     9                           	psect	dataBANK0,global,class=BANK0,space=1,delta=1,noexec
    10                           	psect	inittext,global,class=CODE,delta=2
    11                           	psect	cstackCOMMON,global,class=COMMON,space=1,delta=1,noexec
    12                           	psect	cstackBANK0,global,class=BANK0,space=1,delta=1,noexec
    13                           	psect	maintext,global,class=CODE,split=1,delta=2
    14                           	psect	text1,local,class=CODE,merge=1,delta=2
    15                           	psect	text2,local,class=CODE,merge=1,delta=2
    16                           	psect	intentry,global,class=CODE,delta=2
    17                           	psect	text3,local,class=CODE,merge=1,delta=2
    18                           	psect	idloc,global,abs,ovrld,class=IDLOC,space=5,delta=2,noexec
    19                           	psect	config,global,abs,ovrld,class=CONFIG,space=4,delta=2,noexec
    20                           	dabs	1,0x7E,2
    21     0000                     
    22                           ; Version 2.40
    23                           ; Generated 17/11/2021 GMT
    24                           ; 
    25                           ; Copyright © 2021, Microchip Technology Inc. and its subsidiaries ("Microchip")
    26                           ; All rights reserved.
    27                           ; 
    28                           ; This software is developed by Microchip Technology Inc. and its subsidiaries ("Microch
      +                          ip").
    29                           ; 
    30                           ; Redistribution and use in source and binary forms, with or without modification, are
    31                           ; permitted provided that the following conditions are met:
    32                           ; 
    33                           ;     1. Redistributions of source code must retain the above copyright notice, this lis
      +                          t of
    34                           ;        conditions and the following disclaimer.
    35                           ; 
    36                           ;     2. Redistributions in binary form must reproduce the above copyright notice, this 
      +                          list
    37                           ;        of conditions and the following disclaimer in the documentation and/or other
    38                           ;        materials provided with the distribution. Publication is not required when
    39                           ;        this file is used in an embedded application.
    40                           ; 
    41                           ;     3. Microchip's name may not be used to endorse or promote products derived from th
      +                          is
    42                           ;        software without specific prior written permission.
    43                           ; 
    44                           ; THIS SOFTWARE IS PROVIDED BY MICROCHIP "AS IS" AND ANY EXPRESS OR IMPLIED WARRANTIES,
    45                           ; INCLUDING, BUT NOT LIMITED TO, THE IMPLIED WARRANTIES OF MERCHANTABILITY AND FITNESS F
      +                          OR
    46                           ; PURPOSE ARE DISCLAIMED.  IN NO EVENT SHALL MICROCHIP BE LIABLE FOR ANY DIRECT, INDIREC
      +                          T,
    47                           ; INCIDENTAL, SPECIAL, EXEMPLARY, OR CONSEQUENTIAL DAMAGES (INCLUDING BUT NOT LIMITED TO
    48                           ; PROCUREMENT OF SUBSTITUTE GOODS OR SERVICES; LOSS OF USE, DATA OR PROFITS; OR BUSINESS
    49                           ; INTERRUPTION) HOWSOEVER CAUSED AND ON ANY THEORY OF LIABILITY, WHETHER IN CONTRACT, ST
      +                          RICT
    50                           ; LIABILITY, OR TORT (INCLUDING NEGLIGENCE OR OTHERWISE) ARISING IN ANY WAY OUT OF THE U
      +                          SE OF
    51                           ; THIS SOFTWARE, EVEN IF ADVISED OF THE POSSIBILITY OF SUCH DAMAGE.
    52                           ; 
    53                           ; 
    54                           ; Code-generator required, PIC16F887 Definitions
    55                           ; 
    56                           ; SFR Addresses
    57     0000                     	;# 
    58     0001                     	;# 
    59     0002                     	;# 
    60     0003                     	;# 
    61     0004                     	;# 
    62     0005                     	;# 
    63     0006                     	;# 
    64     0007                     	;# 
    65     0008                     	;# 
    66     0009                     	;# 
    67     000A                     	;# 
    68     000B                     	;# 
    69     000C                     	;# 
    70     000D                     	;# 
    71     000E                     	;# 
    72     000E                     	;# 
    73     000F                     	;# 
    74     0010                     	;# 
    75     0011                     	;# 
    76     0012                     	;# 
    77     0013                     	;# 
    78     0014                     	;# 
    79     0015                     	;# 
    80     0015                     	;# 
    81     0016                     	;# 
    82     0017                     	;# 
    83     0018                     	;# 
    84     0019                     	;# 
    85     001A                     	;# 
    86     001B                     	;# 
    87     001B                     	;# 
    88     001C                     	;# 
    89     001D                     	;# 
    90     001E                     	;# 
    91     001F                     	;# 
    92     0081                     	;# 
    93     0085                     	;# 
    94     0086                     	;# 
    95     0087                     	;# 
    96     0088                     	;# 
    97     0089                     	;# 
    98     008C                     	;# 
    99     008D                     	;# 
   100     008E                     	;# 
   101     008F                     	;# 
   102     0090                     	;# 
   103     0091                     	;# 
   104     0092                     	;# 
   105     0093                     	;# 
   106     0093                     	;# 
   107     0093                     	;# 
   108     0094                     	;# 
   109     0095                     	;# 
   110     0096                     	;# 
   111     0097                     	;# 
   112     0098                     	;# 
   113     0099                     	;# 
   114     009A                     	;# 
   115     009B                     	;# 
   116     009C                     	;# 
   117     009D                     	;# 
   118     009E                     	;# 
   119     009F                     	;# 
   120     0105                     	;# 
   121     0107                     	;# 
   122     0108                     	;# 
   123     0109                     	;# 
   124     010C                     	;# 
   125     010C                     	;# 
   126     010D                     	;# 
   127     010E                     	;# 
   128     010F                     	;# 
   129     0185                     	;# 
   130     0187                     	;# 
   131     0188                     	;# 
   132     0189                     	;# 
   133     018C                     	;# 
   134     018D                     	;# 
   135     0000                     	;# 
   136     0001                     	;# 
   137     0002                     	;# 
   138     0003                     	;# 
   139     0004                     	;# 
   140     0005                     	;# 
   141     0006                     	;# 
   142     0007                     	;# 
   143     0008                     	;# 
   144     0009                     	;# 
   145     000A                     	;# 
   146     000B                     	;# 
   147     000C                     	;# 
   148     000D                     	;# 
   149     000E                     	;# 
   150     000E                     	;# 
   151     000F                     	;# 
   152     0010                     	;# 
   153     0011                     	;# 
   154     0012                     	;# 
   155     0013                     	;# 
   156     0014                     	;# 
   157     0015                     	;# 
   158     0015                     	;# 
   159     0016                     	;# 
   160     0017                     	;# 
   161     0018                     	;# 
   162     0019                     	;# 
   163     001A                     	;# 
   164     001B                     	;# 
   165     001B                     	;# 
   166     001C                     	;# 
   167     001D                     	;# 
   168     001E                     	;# 
   169     001F                     	;# 
   170     0081                     	;# 
   171     0085                     	;# 
   172     0086                     	;# 
   173     0087                     	;# 
   174     0088                     	;# 
   175     0089                     	;# 
   176     008C                     	;# 
   177     008D                     	;# 
   178     008E                     	;# 
   179     008F                     	;# 
   180     0090                     	;# 
   181     0091                     	;# 
   182     0092                     	;# 
   183     0093                     	;# 
   184     0093                     	;# 
   185     0093                     	;# 
   186     0094                     	;# 
   187     0095                     	;# 
   188     0096                     	;# 
   189     0097                     	;# 
   190     0098                     	;# 
   191     0099                     	;# 
   192     009A                     	;# 
   193     009B                     	;# 
   194     009C                     	;# 
   195     009D                     	;# 
   196     009E                     	;# 
   197     009F                     	;# 
   198     0105                     	;# 
   199     0107                     	;# 
   200     0108                     	;# 
   201     0109                     	;# 
   202     010C                     	;# 
   203     010C                     	;# 
   204     010D                     	;# 
   205     010E                     	;# 
   206     010F                     	;# 
   207     0185                     	;# 
   208     0187                     	;# 
   209     0188                     	;# 
   210     0189                     	;# 
   211     018C                     	;# 
   212     018D                     	;# 
   213                           
   214                           	psect	idataCOMMON
   215     0705                     __pidataCOMMON:
   216                           
   217                           ;initializer for _ConstantI
   218     0705  3446               	retlw	70
   219                           
   220                           	psect	idataBANK0
   221     06C2                     __pidataBANK0:
   222                           
   223                           ;initializer for _Phrase1
   224     06C2  3449               	retlw	73
   225     06C3  346E               	retlw	110
   226     06C4  3467               	retlw	103
   227     06C5  346E               	retlw	110
   228     06C6  3469               	retlw	105
   229     06C7  3465               	retlw	101
   230     06C8  3472               	retlw	114
   231     06C9  3469               	retlw	105
   232     06CA  3461               	retlw	97
   233     06CB  340A               	retlw	10
   234     06CC  3420               	retlw	32
   235     06CD  3465               	retlw	101
   236     06CE  346C               	retlw	108
   237     06CF  3465               	retlw	101
   238     06D0  3463               	retlw	99
   239     06D1  3474               	retlw	116
   240     06D2  3472               	retlw	114
   241     06D3  346F               	retlw	111
   242     06D4  346E               	retlw	110
   243     06D5  3469               	retlw	105
   244     06D6  3463               	retlw	99
   245     06D7  3461               	retlw	97
   246     06D8  340A               	retlw	10
   247     06D9  3420               	retlw	32
   248     06DA  3465               	retlw	101
   249     06DB  3473               	retlw	115
   250     06DC  340A               	retlw	10
   251     06DD  3420               	retlw	32
   252     06DE  346C               	retlw	108
   253     06DF  3461               	retlw	97
   254     06E0  340A               	retlw	10
   255     06E1  3420               	retlw	32
   256     06E2  346D               	retlw	109
   257     06E3  3461               	retlw	97
   258     06E4  3473               	retlw	115
   259     06E5  340A               	retlw	10
   260     06E6  3420               	retlw	32
   261     06E7  3463               	retlw	99
   262     06E8  3461               	retlw	97
   263     06E9  3462               	retlw	98
   264     06EA  3472               	retlw	114
   265     06EB  346F               	retlw	111
   266     06EC  346E               	retlw	110
   267     06ED  3461               	retlw	97
   268     06EE  340A               	retlw	10
   269     06EF  3420               	retlw	32
   270     06F0  340A               	retlw	10
   271     06F1  3400               	retlw	0
   272     0012                     _T2CONbits	set	18
   273     000B                     _INTCONbits	set	11
   274     0018                     _RCSTAbits	set	24
   275     001A                     _RCREG	set	26
   276     0006                     _PORTB	set	6
   277     001E                     _ADRESH	set	30
   278     001F                     _ADCON0bits	set	31
   279     0019                     _TXREG	set	25
   280     000C                     _PIR1bits	set	12
   281     0066                     _ADIF	set	102
   282     009F                     _ADCON1bits	set	159
   283     0085                     _TRISA	set	133
   284     0087                     _TRISCbits	set	135
   285     008C                     _PIE1bits	set	140
   286     009A                     _SPBRGH	set	154
   287     0099                     _SPBRG	set	153
   288     0086                     _TRISB	set	134
   289     008F                     _OSCCONbits	set	143
   290     0098                     _TXSTAbits	set	152
   291     0187                     _BAUDCTLbits	set	391
   292     0189                     _ANSELH	set	393
   293     0188                     _ANSEL	set	392
   294                           
   295                           	psect	cinit
   296     0011                     start_initialization:	
   297                           ; #config settings
   298                           
   299     0011                     __initialization:
   300                           
   301                           ; Initialize objects allocated to BANK0
   302     0011  1383               	bcf	3,7	;select IRP bank0
   303     0012  3050               	movlw	low (__pdataBANK0+48)
   304     0013  00FD               	movwf	btemp+-1
   305     0014  3006               	movlw	high __pidataBANK0
   306     0015  00FE               	movwf	btemp
   307     0016  30C2               	movlw	low __pidataBANK0
   308     0017  00FF               	movwf	btemp+1
   309     0018  3020               	movlw	low __pdataBANK0
   310     0019  0084               	movwf	4
   311     001A  120A  118A  26F6  120A  118A  	fcall	init_ram0
   312                           
   313                           ; Initialize objects allocated to COMMON
   314     001F  120A  118A  2705  120A  118A  	fcall	__pidataCOMMON	;fetch initializer
   315     0024  00F9               	movwf	__pdataCOMMON& (0+127)
   316                           
   317                           ; Clear objects allocated to COMMON
   318     0025  01F7               	clrf	__pbssCOMMON& (0+127)
   319     0026  01F8               	clrf	(__pbssCOMMON+1)& (0+127)
   320     0027                     end_of_initialization:	
   321                           ;End of C runtime variable initialization code
   322                           
   323     0027                     __end_of__initialization:
   324     0027  0183               	clrf	3
   325     0028  120A  118A  2E5F   	ljmp	_main	;jump to C main() function
   326                           
   327                           	psect	bssCOMMON
   328     0077                     __pbssCOMMON:
   329     0077                     _WTS:
   330     0077                     	ds	1
   331     0078                     _Boo:
   332     0078                     	ds	1
   333                           
   334                           	psect	dataCOMMON
   335     0079                     __pdataCOMMON:
   336     0079                     _ConstantI:
   337     0079                     	ds	1
   338                           
   339                           	psect	dataBANK0
   340     0020                     __pdataBANK0:
   341     0020                     _Phrase1:
   342     0020                     	ds	48
   343                           
   344                           	psect	inittext
   345     06F2                     init_fetch0:	
   346                           ;	Called with low address in FSR and high address in W
   347                           
   348     06F2  087E               	movf	btemp,w
   349     06F3  008A               	movwf	10
   350     06F4  087F               	movf	btemp+1,w
   351     06F5  0082               	movwf	2
   352     06F6                     init_ram0:	
   353                           ;Called with:
   354                           ;	high address of idata address in btemp 
   355                           ;	low address of idata address in btemp+1 
   356                           ;	low address of data in FSR
   357                           ;	high address + 1 of data in btemp-1
   358                           
   359     06F6  120A  118A  26F2  120A  118A  	fcall	init_fetch0
   360     06FB  0080               	movwf	0
   361     06FC  0A84               	incf	4,f
   362     06FD  0804               	movf	4,w
   363     06FE  067D               	xorwf	btemp+-1,w
   364     06FF  1903               	btfsc	3,2
   365     0700  3400               	retlw	0
   366     0701  0AFF               	incf	btemp+1,f
   367     0702  1903               	btfsc	3,2
   368     0703  0AFE               	incf	btemp,f
   369     0704  2EF6               	goto	init_ram0
   370                           
   371                           	psect	cstackCOMMON
   372     0070                     __pcstackCOMMON:
   373     0070                     ?_Menu:
   374     0070                     ?_isr:	
   375                           ; 1 bytes @ 0x0
   376                           
   377     0070                     ?_main:	
   378                           ; 1 bytes @ 0x0
   379                           
   380     0070                     ?i1_Menu:	
   381                           ; 1 bytes @ 0x0
   382                           
   383     0070                     ??i1_Menu:	
   384                           ; 1 bytes @ 0x0
   385                           
   386                           
   387                           ; 1 bytes @ 0x0
   388     0070                     	ds	2
   389     0072                     ??_isr:
   390                           
   391                           ; 1 bytes @ 0x2
   392     0072                     	ds	5
   393                           
   394                           	psect	cstackBANK0
   395     0050                     __pcstackBANK0:
   396     0050                     ??_Menu:
   397                           
   398                           ; 1 bytes @ 0x0
   399     0050                     	ds	2
   400     0052                     ??_main:
   401                           
   402                           ; 1 bytes @ 0x2
   403     0052                     	ds	1
   404                           
   405                           	psect	maintext
   406     065F                     __pmaintext:	
   407 ;;
   408 ;;Main: autosize = 0, tempsize = 1, incstack = 0, save=0
   409 ;;
   410 ;; *************** function _main *****************
   411 ;; Defined at:
   412 ;;		line 540 in file "l6.c"
   413 ;; Parameters:    Size  Location     Type
   414 ;;		None
   415 ;; Auto vars:     Size  Location     Type
   416 ;;		None
   417 ;; Return value:  Size  Location     Type
   418 ;;                  1    wreg      void 
   419 ;; Registers used:
   420 ;;		wreg, status,2, status,0, pclath, cstack
   421 ;; Tracked objects:
   422 ;;		On entry : B00/0
   423 ;;		On exit  : 0/0
   424 ;;		Unchanged: 0/0
   425 ;; Data sizes:     COMMON   BANK0   BANK1   BANK3   BANK2
   426 ;;      Params:         0       0       0       0       0
   427 ;;      Locals:         0       0       0       0       0
   428 ;;      Temps:          0       1       0       0       0
   429 ;;      Totals:         0       1       0       0       0
   430 ;;Total ram usage:        1 bytes
   431 ;; Hardware stack levels required when called: 3
   432 ;; This function calls:
   433 ;;		_Menu
   434 ;; This function is called by:
   435 ;;		Startup code after reset
   436 ;; This function uses a non-reentrant model
   437 ;;
   438                           
   439     065F                     _main:	
   440                           ;psect for function _main
   441                           
   442     065F                     l1911:	
   443                           ;incstack = 0
   444                           ; Regs used in _main: [wreg+status,2+status,0+pclath+cstack]
   445                           
   446                           
   447                           ;l6.c: 546:     TXSTAbits.TXEN = 1;
   448     065F  1683               	bsf	3,5	;RP0=1, select bank1
   449     0660  1303               	bcf	3,6	;RP1=0, select bank1
   450     0661  170F               	bsf	15,6	;volatile
   451                           
   452                           ;l6.c: 547: 
   453     0662  128F               	bcf	15,5	;volatile
   454                           
   455                           ;l6.c: 548: 
   456     0663  120F               	bcf	15,4	;volatile
   457                           
   458                           ;l6.c: 549:     PIR1bits.RCIF = 1;
   459     0664  140F               	bsf	15,0	;volatile
   460     0665                     l1913:
   461                           
   462                           ;l6.c: 552:     INTCONbits.GIE = 1;
   463     0665  1683               	bsf	3,5	;RP0=1, select bank3
   464     0666  1703               	bsf	3,6	;RP1=1, select bank3
   465     0667  0188               	clrf	8	;volatile
   466                           
   467                           ;l6.c: 553: 
   468     0668  0189               	clrf	9	;volatile
   469                           
   470                           ;l6.c: 554:     PIR1bits.TMR2IF = 0;
   471     0669  1683               	bsf	3,5	;RP0=1, select bank1
   472     066A  1303               	bcf	3,6	;RP1=0, select bank1
   473     066B  0186               	clrf	6	;volatile
   474                           
   475                           ;l6.c: 556:     T2CONbits.TMR2ON = 1;
   476     066C  1283               	bcf	3,5	;RP0=0, select bank0
   477     066D  1303               	bcf	3,6	;RP1=0, select bank0
   478     066E  0186               	clrf	6	;volatile
   479     066F                     l1915:
   480                           
   481                           ;l6.c: 559:     PIR1bits.TMR2IF = 0;
   482     066F  1683               	bsf	3,5	;RP0=1, select bank1
   483     0670  1303               	bcf	3,6	;RP1=0, select bank1
   484     0671  1218               	bcf	24,4	;volatile
   485     0672                     l1917:
   486                           
   487                           ;l6.c: 560:     TRISCbits.TRISC2 = 0;
   488     0672  1518               	bsf	24,2	;volatile
   489     0673                     l1919:
   490                           
   491                           ;l6.c: 561:     TRISCbits.TRISC1 = 0;
   492     0673  1683               	bsf	3,5	;RP0=1, select bank3
   493     0674  1703               	bsf	3,6	;RP1=1, select bank3
   494     0675  1587               	bsf	7,3	;volatile
   495     0676                     l1921:
   496                           
   497                           ;l6.c: 563: 
   498     0676  3019               	movlw	25
   499     0677  1683               	bsf	3,5	;RP0=1, select bank1
   500     0678  1303               	bcf	3,6	;RP1=0, select bank1
   501     0679  0099               	movwf	25	;volatile
   502     067A                     l1923:
   503                           
   504                           ;l6.c: 564: 
   505     067A  019A               	clrf	26	;volatile
   506     067B                     l1925:
   507                           
   508                           ;l6.c: 566:     ANSEL = ANSEL | 0x01;
   509     067B  1283               	bcf	3,5	;RP0=0, select bank0
   510     067C  1303               	bcf	3,6	;RP1=0, select bank0
   511     067D  1798               	bsf	24,7	;volatile
   512     067E                     l1927:
   513                           
   514                           ;l6.c: 567: 
   515     067E  1318               	bcf	24,6	;volatile
   516     067F                     l1929:
   517                           
   518                           ;l6.c: 568: 
   519     067F  1618               	bsf	24,4	;volatile
   520     0680                     l1931:
   521                           
   522                           ;l6.c: 569: 
   523     0680  1683               	bsf	3,5	;RP0=1, select bank1
   524     0681  1303               	bcf	3,6	;RP1=0, select bank1
   525     0682  1698               	bsf	24,5	;volatile
   526     0683                     l1933:
   527                           
   528                           ;l6.c: 572: 
   529     0683  1283               	bcf	3,5	;RP0=0, select bank0
   530     0684  1303               	bcf	3,6	;RP1=0, select bank0
   531     0685  168C               	bsf	12,5	;volatile
   532     0686                     l1935:
   533                           
   534                           ;l6.c: 573:     ADCON1bits.VCFG1 = 0;
   535     0686  1683               	bsf	3,5	;RP0=1, select bank1
   536     0687  1303               	bcf	3,6	;RP1=0, select bank1
   537     0688  168C               	bsf	12,5	;volatile
   538     0689                     l1937:
   539                           
   540                           ;l6.c: 574:     ADCON1bits.VCFG0 = 0;
   541     0689  170B               	bsf	11,6	;volatile
   542     068A                     l1939:
   543                           
   544                           ;l6.c: 575: 
   545     068A  178B               	bsf	11,7	;volatile
   546     068B                     l1941:
   547                           
   548                           ;l6.c: 577: 
   549     068B  1283               	bcf	3,5	;RP0=0, select bank0
   550     068C  1303               	bcf	3,6	;RP1=0, select bank0
   551     068D  108C               	bcf	12,1	;volatile
   552     068E                     l1943:
   553                           
   554                           ;l6.c: 578:     ADCON0bits.CHS3 = 0;
   555     068E  3003               	movlw	3
   556     068F  0492               	iorwf	18,f	;volatile
   557     0690                     l1945:
   558                           
   559                           ;l6.c: 579:     ADCON0bits.CHS2 = 0;
   560     0690  1512               	bsf	18,2	;volatile
   561     0691                     l177:	
   562                           ;l6.c: 581:     ADCON0bits.CHS0 = 0;
   563                           
   564     0691  1C8C               	btfss	12,1	;volatile
   565     0692  2E94               	goto	u2611
   566     0693  2E95               	goto	u2610
   567     0694                     u2611:
   568     0694  2E91               	goto	l177
   569     0695                     u2610:
   570     0695                     l179:
   571                           
   572                           ;l6.c: 582: 
   573     0695  108C               	bcf	12,1	;volatile
   574                           
   575                           ;l6.c: 583:     ADCON0bits.ADON = 1;
   576     0696  1683               	bsf	3,5	;RP0=1, select bank1
   577     0697  1303               	bcf	3,6	;RP1=0, select bank1
   578     0698  1107               	bcf	7,2	;volatile
   579                           
   580                           ;l6.c: 584:     _delay((unsigned long)((100)*(8000000/4000000.0)));
   581     0699  1087               	bcf	7,1	;volatile
   582     069A                     l1947:
   583                           
   584                           ;l6.c: 588:     while (1)
   585     069A  0805               	movf	5,w	;volatile
   586     069B  3801               	iorlw	1
   587     069C  0085               	movwf	5	;volatile
   588                           
   589                           ;l6.c: 589:     {
   590     069D  1683               	bsf	3,5	;RP0=1, select bank3
   591     069E  1703               	bsf	3,6	;RP1=1, select bank3
   592     069F  0808               	movf	8,w	;volatile
   593     06A0  3801               	iorlw	1
   594     06A1  0088               	movwf	8	;volatile
   595     06A2                     l1949:
   596     06A2  1283               	bcf	3,5	;RP0=0, select bank0
   597     06A3  1303               	bcf	3,6	;RP1=0, select bank0
   598     06A4  139F               	bcf	31,7	;volatile
   599     06A5                     l1951:
   600     06A5  171F               	bsf	31,6	;volatile
   601     06A6                     l1953:
   602     06A6  1683               	bsf	3,5	;RP0=1, select bank1
   603     06A7  1303               	bcf	3,6	;RP1=0, select bank1
   604     06A8  129F               	bcf	31,5	;volatile
   605     06A9                     l1955:
   606     06A9  121F               	bcf	31,4	;volatile
   607     06AA                     l1957:
   608     06AA  139F               	bcf	31,7	;volatile
   609     06AB                     l1959:
   610     06AB  1283               	bcf	3,5	;RP0=0, select bank0
   611     06AC  1303               	bcf	3,6	;RP1=0, select bank0
   612     06AD  129F               	bcf	31,5	;volatile
   613     06AE                     l1961:
   614     06AE  121F               	bcf	31,4	;volatile
   615     06AF                     l1963:
   616     06AF  119F               	bcf	31,3	;volatile
   617     06B0                     l1965:
   618     06B0  111F               	bcf	31,2	;volatile
   619     06B1                     l1967:
   620     06B1  141F               	bsf	31,0	;volatile
   621     06B2                     l1969:
   622     06B2  3041               	movlw	65
   623     06B3  1283               	bcf	3,5	;RP0=0, select bank0
   624     06B4  1303               	bcf	3,6	;RP1=0, select bank0
   625     06B5  00D2               	movwf	??_main
   626     06B6                     u2627:
   627     06B6  0BD2               	decfsz	??_main,f
   628     06B7  2EB6               	goto	u2627
   629     06B8  2EB9               	nop2
   630     06B9                     l1971:
   631     06B9  120A  118A  202B  120A  118A  	fcall	_Menu
   632     06BE                     l180:
   633     06BE                     l181:
   634     06BE  2EBE               	goto	l180
   635     06BF  120A  118A  280E   	ljmp	start
   636     06C2                     __end_of_main:
   637                           
   638                           	psect	text1
   639     002B                     __ptext1:	
   640 ;; *************** function _Menu *****************
   641 ;; Defined at:
   642 ;;		line 51 in file "l6.c"
   643 ;; Parameters:    Size  Location     Type
   644 ;;		None
   645 ;; Auto vars:     Size  Location     Type
   646 ;;		None
   647 ;; Return value:  Size  Location     Type
   648 ;;                  1    wreg      void 
   649 ;; Registers used:
   650 ;;		wreg
   651 ;; Tracked objects:
   652 ;;		On entry : 0/0
   653 ;;		On exit  : 0/0
   654 ;;		Unchanged: 0/0
   655 ;; Data sizes:     COMMON   BANK0   BANK1   BANK3   BANK2
   656 ;;      Params:         0       0       0       0       0
   657 ;;      Locals:         0       0       0       0       0
   658 ;;      Temps:          0       2       0       0       0
   659 ;;      Totals:         0       2       0       0       0
   660 ;;Total ram usage:        2 bytes
   661 ;; Hardware stack levels used: 1
   662 ;; Hardware stack levels required when called: 2
   663 ;; This function calls:
   664 ;;		Nothing
   665 ;; This function is called by:
   666 ;;		_main
   667 ;; This function uses a non-reentrant model
   668 ;;
   669                           
   670     002B                     _Menu:	
   671                           ;psect for function _Menu
   672                           
   673     002B                     l1577:	
   674                           ;incstack = 0
   675                           ; Regs used in _Menu: [wreg]
   676                           
   677                           
   678                           ;l6.c: 53:             TXREG = 97;
   679     002B  300D               	movlw	13
   680     002C  1283               	bcf	3,5	;RP0=0, select bank0
   681     002D  1303               	bcf	3,6	;RP1=0, select bank0
   682     002E  00D1               	movwf	??_Menu+1
   683     002F  30FB               	movlw	251
   684     0030  00D0               	movwf	??_Menu
   685     0031                     u2637:
   686     0031  0BD0               	decfsz	??_Menu,f
   687     0032  2831               	goto	u2637
   688     0033  0BD1               	decfsz	??_Menu+1,f
   689     0034  2831               	goto	u2637
   690     0035                     l1579:
   691                           
   692                           ;l6.c: 54:         }
   693     0035  1283               	bcf	3,5	;RP0=0, select bank0
   694     0036  1303               	bcf	3,6	;RP1=0, select bank0
   695     0037  1E0C               	btfss	12,4	;volatile
   696     0038  283A               	goto	u1781
   697     0039  283B               	goto	u1780
   698     003A                     u1781:
   699     003A  283D               	goto	l70
   700     003B                     u1780:
   701     003B                     l1581:
   702                           
   703                           ;l6.c: 55:         _delay((unsigned long)((5)*(8000000/4000.0)));;l6.c: 56:         if (
      +                          PIR1bits.TXIF)
   704     003B  3051               	movlw	81
   705     003C  0099               	movwf	25	;volatile
   706     003D                     l70:	
   707                           ;l6.c: 57:         {
   708                           
   709                           
   710                           ;l6.c: 58:             TXREG = 99;
   711     003D  300D               	movlw	13
   712     003E  1283               	bcf	3,5	;RP0=0, select bank0
   713     003F  1303               	bcf	3,6	;RP1=0, select bank0
   714     0040  00D1               	movwf	??_Menu+1
   715     0041  30FB               	movlw	251
   716     0042  00D0               	movwf	??_Menu
   717     0043                     u2647:
   718     0043  0BD0               	decfsz	??_Menu,f
   719     0044  2843               	goto	u2647
   720     0045  0BD1               	decfsz	??_Menu+1,f
   721     0046  2843               	goto	u2647
   722     0047                     l1583:
   723                           
   724                           ;l6.c: 59:         }
   725     0047  1283               	bcf	3,5	;RP0=0, select bank0
   726     0048  1303               	bcf	3,6	;RP1=0, select bank0
   727     0049  1E0C               	btfss	12,4	;volatile
   728     004A  284C               	goto	u1791
   729     004B  284D               	goto	u1790
   730     004C                     u1791:
   731     004C  284F               	goto	l71
   732     004D                     u1790:
   733     004D                     l1585:
   734                           
   735                           ;l6.c: 60:         _delay((unsigned long)((5)*(8000000/4000.0)));;l6.c: 61:         if (
      +                          PIR1bits.TXIF)
   736     004D  3075               	movlw	117
   737     004E  0099               	movwf	25	;volatile
   738     004F                     l71:	
   739                           ;l6.c: 62:         {
   740                           
   741                           
   742                           ;l6.c: 63:             TXREG = 99;
   743     004F  300D               	movlw	13
   744     0050  1283               	bcf	3,5	;RP0=0, select bank0
   745     0051  1303               	bcf	3,6	;RP1=0, select bank0
   746     0052  00D1               	movwf	??_Menu+1
   747     0053  30FB               	movlw	251
   748     0054  00D0               	movwf	??_Menu
   749     0055                     u2657:
   750     0055  0BD0               	decfsz	??_Menu,f
   751     0056  2855               	goto	u2657
   752     0057  0BD1               	decfsz	??_Menu+1,f
   753     0058  2855               	goto	u2657
   754     0059                     l1587:
   755                           
   756                           ;l6.c: 64:         }
   757     0059  1283               	bcf	3,5	;RP0=0, select bank0
   758     005A  1303               	bcf	3,6	;RP1=0, select bank0
   759     005B  1E0C               	btfss	12,4	;volatile
   760     005C  285E               	goto	u1801
   761     005D  285F               	goto	u1800
   762     005E                     u1801:
   763     005E  2861               	goto	l72
   764     005F                     u1800:
   765     005F                     l1589:
   766                           
   767                           ;l6.c: 65:         _delay((unsigned long)((5)*(8000000/4000.0)));;l6.c: 66:         if (
      +                          PIR1bits.TXIF)
   768     005F  3065               	movlw	101
   769     0060  0099               	movwf	25	;volatile
   770     0061                     l72:	
   771                           ;l6.c: 67:         {
   772                           
   773                           
   774                           ;l6.c: 68:             TXREG = 105;
   775     0061  300D               	movlw	13
   776     0062  1283               	bcf	3,5	;RP0=0, select bank0
   777     0063  1303               	bcf	3,6	;RP1=0, select bank0
   778     0064  00D1               	movwf	??_Menu+1
   779     0065  30FB               	movlw	251
   780     0066  00D0               	movwf	??_Menu
   781     0067                     u2667:
   782     0067  0BD0               	decfsz	??_Menu,f
   783     0068  2867               	goto	u2667
   784     0069  0BD1               	decfsz	??_Menu+1,f
   785     006A  2867               	goto	u2667
   786     006B                     l1591:
   787                           
   788                           ;l6.c: 69:         }
   789     006B  1283               	bcf	3,5	;RP0=0, select bank0
   790     006C  1303               	bcf	3,6	;RP1=0, select bank0
   791     006D  1E0C               	btfss	12,4	;volatile
   792     006E  2870               	goto	u1811
   793     006F  2871               	goto	u1810
   794     0070                     u1811:
   795     0070  2873               	goto	l73
   796     0071                     u1810:
   797     0071                     l1593:
   798                           
   799                           ;l6.c: 70:         _delay((unsigned long)((5)*(8000000/4000.0)));;l6.c: 71:         if (
      +                          PIR1bits.TXIF)
   800     0071  3020               	movlw	32
   801     0072  0099               	movwf	25	;volatile
   802     0073                     l73:	
   803                           ;l6.c: 72:         {
   804                           
   805                           
   806                           ;l6.c: 73:             TXREG = 111;
   807     0073  300D               	movlw	13
   808     0074  1283               	bcf	3,5	;RP0=0, select bank0
   809     0075  1303               	bcf	3,6	;RP1=0, select bank0
   810     0076  00D1               	movwf	??_Menu+1
   811     0077  30FB               	movlw	251
   812     0078  00D0               	movwf	??_Menu
   813     0079                     u2677:
   814     0079  0BD0               	decfsz	??_Menu,f
   815     007A  2879               	goto	u2677
   816     007B  0BD1               	decfsz	??_Menu+1,f
   817     007C  2879               	goto	u2677
   818     007D                     l1595:
   819                           
   820                           ;l6.c: 74:         }
   821     007D  1283               	bcf	3,5	;RP0=0, select bank0
   822     007E  1303               	bcf	3,6	;RP1=0, select bank0
   823     007F  1E0C               	btfss	12,4	;volatile
   824     0080  2882               	goto	u1821
   825     0081  2883               	goto	u1820
   826     0082                     u1821:
   827     0082  2885               	goto	l74
   828     0083                     u1820:
   829     0083                     l1597:
   830                           
   831                           ;l6.c: 75:         _delay((unsigned long)((5)*(8000000/4000.0)));;l6.c: 76:         if (
      +                          PIR1bits.TXIF)
   832     0083  3061               	movlw	97
   833     0084  0099               	movwf	25	;volatile
   834     0085                     l74:	
   835                           ;l6.c: 77:         {
   836                           
   837                           
   838                           ;l6.c: 78:             TXREG = 110;
   839     0085  300D               	movlw	13
   840     0086  1283               	bcf	3,5	;RP0=0, select bank0
   841     0087  1303               	bcf	3,6	;RP1=0, select bank0
   842     0088  00D1               	movwf	??_Menu+1
   843     0089  30FB               	movlw	251
   844     008A  00D0               	movwf	??_Menu
   845     008B                     u2687:
   846     008B  0BD0               	decfsz	??_Menu,f
   847     008C  288B               	goto	u2687
   848     008D  0BD1               	decfsz	??_Menu+1,f
   849     008E  288B               	goto	u2687
   850     008F                     l1599:
   851                           
   852                           ;l6.c: 79:         }
   853     008F  1283               	bcf	3,5	;RP0=0, select bank0
   854     0090  1303               	bcf	3,6	;RP1=0, select bank0
   855     0091  1E0C               	btfss	12,4	;volatile
   856     0092  2894               	goto	u1831
   857     0093  2895               	goto	u1830
   858     0094                     u1831:
   859     0094  2897               	goto	l75
   860     0095                     u1830:
   861     0095                     l1601:
   862                           
   863                           ;l6.c: 80: ;l6.c: 81:         if (PIR1bits.TXIF)
   864     0095  3063               	movlw	99
   865     0096  0099               	movwf	25	;volatile
   866     0097                     l75:	
   867                           ;l6.c: 82:         {
   868                           
   869                           
   870                           ;l6.c: 83:             TXREG = 32;
   871     0097  300D               	movlw	13
   872     0098  1283               	bcf	3,5	;RP0=0, select bank0
   873     0099  1303               	bcf	3,6	;RP1=0, select bank0
   874     009A  00D1               	movwf	??_Menu+1
   875     009B  30FB               	movlw	251
   876     009C  00D0               	movwf	??_Menu
   877     009D                     u2697:
   878     009D  0BD0               	decfsz	??_Menu,f
   879     009E  289D               	goto	u2697
   880     009F  0BD1               	decfsz	??_Menu+1,f
   881     00A0  289D               	goto	u2697
   882     00A1                     l1603:
   883                           
   884                           ;l6.c: 84:         }
   885     00A1  1283               	bcf	3,5	;RP0=0, select bank0
   886     00A2  1303               	bcf	3,6	;RP1=0, select bank0
   887     00A3  1E0C               	btfss	12,4	;volatile
   888     00A4  28A6               	goto	u1841
   889     00A5  28A7               	goto	u1840
   890     00A6                     u1841:
   891     00A6  28A9               	goto	l76
   892     00A7                     u1840:
   893     00A7                     l1605:
   894                           
   895                           ;l6.c: 85:         _delay((unsigned long)((5)*(8000000/4000.0)));;l6.c: 86:         if (
      +                          PIR1bits.TXIF)
   896     00A7  3063               	movlw	99
   897     00A8  0099               	movwf	25	;volatile
   898     00A9                     l76:	
   899                           ;l6.c: 87:         {
   900                           
   901                           
   902                           ;l6.c: 88:             TXREG = 100;
   903     00A9  300D               	movlw	13
   904     00AA  1283               	bcf	3,5	;RP0=0, select bank0
   905     00AB  1303               	bcf	3,6	;RP1=0, select bank0
   906     00AC  00D1               	movwf	??_Menu+1
   907     00AD  30FB               	movlw	251
   908     00AE  00D0               	movwf	??_Menu
   909     00AF                     u2707:
   910     00AF  0BD0               	decfsz	??_Menu,f
   911     00B0  28AF               	goto	u2707
   912     00B1  0BD1               	decfsz	??_Menu+1,f
   913     00B2  28AF               	goto	u2707
   914     00B3                     l1607:
   915                           
   916                           ;l6.c: 89:         }
   917     00B3  1283               	bcf	3,5	;RP0=0, select bank0
   918     00B4  1303               	bcf	3,6	;RP1=0, select bank0
   919     00B5  1E0C               	btfss	12,4	;volatile
   920     00B6  28B8               	goto	u1851
   921     00B7  28B9               	goto	u1850
   922     00B8                     u1851:
   923     00B8  28BB               	goto	l77
   924     00B9                     u1850:
   925     00B9                     l1609:
   926                           
   927                           ;l6.c: 90:         _delay((unsigned long)((5)*(8000000/4000.0)));;l6.c: 91:         if (
      +                          PIR1bits.TXIF)
   928     00B9  3069               	movlw	105
   929     00BA  0099               	movwf	25	;volatile
   930     00BB                     l77:	
   931                           ;l6.c: 92:         {
   932                           
   933                           
   934                           ;l6.c: 93:             TXREG = 101;
   935     00BB  300D               	movlw	13
   936     00BC  1283               	bcf	3,5	;RP0=0, select bank0
   937     00BD  1303               	bcf	3,6	;RP1=0, select bank0
   938     00BE  00D1               	movwf	??_Menu+1
   939     00BF  30FB               	movlw	251
   940     00C0  00D0               	movwf	??_Menu
   941     00C1                     u2717:
   942     00C1  0BD0               	decfsz	??_Menu,f
   943     00C2  28C1               	goto	u2717
   944     00C3  0BD1               	decfsz	??_Menu+1,f
   945     00C4  28C1               	goto	u2717
   946     00C5                     l1611:
   947                           
   948                           ;l6.c: 94:         }
   949     00C5  1283               	bcf	3,5	;RP0=0, select bank0
   950     00C6  1303               	bcf	3,6	;RP1=0, select bank0
   951     00C7  1E0C               	btfss	12,4	;volatile
   952     00C8  28CA               	goto	u1861
   953     00C9  28CB               	goto	u1860
   954     00CA                     u1861:
   955     00CA  28CD               	goto	l78
   956     00CB                     u1860:
   957     00CB                     l1613:
   958                           
   959                           ;l6.c: 95:         _delay((unsigned long)((5)*(8000000/4000.0)));;l6.c: 96:         if (
      +                          PIR1bits.TXIF)
   960     00CB  306F               	movlw	111
   961     00CC  0099               	movwf	25	;volatile
   962     00CD                     l78:	
   963                           ;l6.c: 97:         {
   964                           
   965                           
   966                           ;l6.c: 98:             TXREG = 115;
   967     00CD  300D               	movlw	13
   968     00CE  1283               	bcf	3,5	;RP0=0, select bank0
   969     00CF  1303               	bcf	3,6	;RP1=0, select bank0
   970     00D0  00D1               	movwf	??_Menu+1
   971     00D1  30FB               	movlw	251
   972     00D2  00D0               	movwf	??_Menu
   973     00D3                     u2727:
   974     00D3  0BD0               	decfsz	??_Menu,f
   975     00D4  28D3               	goto	u2727
   976     00D5  0BD1               	decfsz	??_Menu+1,f
   977     00D6  28D3               	goto	u2727
   978     00D7                     l1615:
   979                           
   980                           ;l6.c: 99:         }
   981     00D7  1283               	bcf	3,5	;RP0=0, select bank0
   982     00D8  1303               	bcf	3,6	;RP1=0, select bank0
   983     00D9  1E0C               	btfss	12,4	;volatile
   984     00DA  28DC               	goto	u1871
   985     00DB  28DD               	goto	u1870
   986     00DC                     u1871:
   987     00DC  28DF               	goto	l1619
   988     00DD                     u1870:
   989     00DD                     l1617:
   990                           
   991                           ;l6.c: 100:         _delay((unsigned long)((5)*(8000000/4000.0)));;l6.c: 101:         if
      +                           (PIR1bits.TXIF)
   992     00DD  306E               	movlw	110
   993     00DE  0099               	movwf	25	;volatile
   994     00DF                     l1619:
   995                           
   996                           ;l6.c: 104:         }
   997     00DF  1E0C               	btfss	12,4	;volatile
   998     00E0  28E2               	goto	u1881
   999     00E1  28E3               	goto	u1880
  1000     00E2                     u1881:
  1001     00E2  28E5               	goto	l80
  1002     00E3                     u1880:
  1003     00E3                     l1621:
  1004                           
  1005                           ;l6.c: 105:         _delay((unsigned long)((5)*(8000000/4000.0)));;l6.c: 106:         if
      +                           (PIR1bits.TXIF)
  1006     00E3  3020               	movlw	32
  1007     00E4  0099               	movwf	25	;volatile
  1008     00E5                     l80:	
  1009                           ;l6.c: 107:         {
  1010                           
  1011                           
  1012                           ;l6.c: 108:             TXREG = 97;
  1013     00E5  300D               	movlw	13
  1014     00E6  1283               	bcf	3,5	;RP0=0, select bank0
  1015     00E7  1303               	bcf	3,6	;RP1=0, select bank0
  1016     00E8  00D1               	movwf	??_Menu+1
  1017     00E9  30FB               	movlw	251
  1018     00EA  00D0               	movwf	??_Menu
  1019     00EB                     u2737:
  1020     00EB  0BD0               	decfsz	??_Menu,f
  1021     00EC  28EB               	goto	u2737
  1022     00ED  0BD1               	decfsz	??_Menu+1,f
  1023     00EE  28EB               	goto	u2737
  1024     00EF                     l1623:
  1025                           
  1026                           ;l6.c: 109:         }
  1027     00EF  1283               	bcf	3,5	;RP0=0, select bank0
  1028     00F0  1303               	bcf	3,6	;RP1=0, select bank0
  1029     00F1  1E0C               	btfss	12,4	;volatile
  1030     00F2  28F4               	goto	u1891
  1031     00F3  28F5               	goto	u1890
  1032     00F4                     u1891:
  1033     00F4  28F7               	goto	l81
  1034     00F5                     u1890:
  1035     00F5                     l1625:
  1036                           
  1037                           ;l6.c: 110:         _delay((unsigned long)((5)*(8000000/4000.0)));;l6.c: 111:         if
      +                           (PIR1bits.TXIF)
  1038     00F5  3064               	movlw	100
  1039     00F6  0099               	movwf	25	;volatile
  1040     00F7                     l81:	
  1041                           ;l6.c: 112:         {
  1042                           
  1043                           
  1044                           ;l6.c: 113:             TXREG = 32;
  1045     00F7  300D               	movlw	13
  1046     00F8  1283               	bcf	3,5	;RP0=0, select bank0
  1047     00F9  1303               	bcf	3,6	;RP1=0, select bank0
  1048     00FA  00D1               	movwf	??_Menu+1
  1049     00FB  30FB               	movlw	251
  1050     00FC  00D0               	movwf	??_Menu
  1051     00FD                     u2747:
  1052     00FD  0BD0               	decfsz	??_Menu,f
  1053     00FE  28FD               	goto	u2747
  1054     00FF  0BD1               	decfsz	??_Menu+1,f
  1055     0100  28FD               	goto	u2747
  1056     0101                     l1627:
  1057                           
  1058                           ;l6.c: 114:         }
  1059     0101  1283               	bcf	3,5	;RP0=0, select bank0
  1060     0102  1303               	bcf	3,6	;RP1=0, select bank0
  1061     0103  1E0C               	btfss	12,4	;volatile
  1062     0104  2906               	goto	u1901
  1063     0105  2907               	goto	u1900
  1064     0106                     u1901:
  1065     0106  2909               	goto	l82
  1066     0107                     u1900:
  1067     0107                     l1629:
  1068                           
  1069                           ;l6.c: 115:         _delay((unsigned long)((5)*(8000000/4000.0)));;l6.c: 116:         if
      +                           (PIR1bits.TXIF)
  1070     0107  3065               	movlw	101
  1071     0108  0099               	movwf	25	;volatile
  1072     0109                     l82:	
  1073                           ;l6.c: 117:         {
  1074                           
  1075                           
  1076                           ;l6.c: 118:             TXREG = 101;
  1077     0109  300D               	movlw	13
  1078     010A  1283               	bcf	3,5	;RP0=0, select bank0
  1079     010B  1303               	bcf	3,6	;RP1=0, select bank0
  1080     010C  00D1               	movwf	??_Menu+1
  1081     010D  30FB               	movlw	251
  1082     010E  00D0               	movwf	??_Menu
  1083     010F                     u2757:
  1084     010F  0BD0               	decfsz	??_Menu,f
  1085     0110  290F               	goto	u2757
  1086     0111  0BD1               	decfsz	??_Menu+1,f
  1087     0112  290F               	goto	u2757
  1088     0113                     l1631:
  1089                           
  1090                           ;l6.c: 119:         }
  1091     0113  1283               	bcf	3,5	;RP0=0, select bank0
  1092     0114  1303               	bcf	3,6	;RP1=0, select bank0
  1093     0115  1E0C               	btfss	12,4	;volatile
  1094     0116  2918               	goto	u1911
  1095     0117  2919               	goto	u1910
  1096     0118                     u1911:
  1097     0118  291B               	goto	l83
  1098     0119                     u1910:
  1099     0119                     l1633:
  1100                           
  1101                           ;l6.c: 120:         _delay((unsigned long)((5)*(8000000/4000.0)));;l6.c: 121:         if
      +                           (PIR1bits.TXIF)
  1102     0119  3073               	movlw	115
  1103     011A  0099               	movwf	25	;volatile
  1104     011B                     l83:	
  1105                           ;l6.c: 122:         {
  1106                           
  1107                           
  1108                           ;l6.c: 123:             TXREG = 106;
  1109     011B  300D               	movlw	13
  1110     011C  1283               	bcf	3,5	;RP0=0, select bank0
  1111     011D  1303               	bcf	3,6	;RP1=0, select bank0
  1112     011E  00D1               	movwf	??_Menu+1
  1113     011F  30FB               	movlw	251
  1114     0120  00D0               	movwf	??_Menu
  1115     0121                     u2767:
  1116     0121  0BD0               	decfsz	??_Menu,f
  1117     0122  2921               	goto	u2767
  1118     0123  0BD1               	decfsz	??_Menu+1,f
  1119     0124  2921               	goto	u2767
  1120     0125                     l1635:
  1121                           
  1122                           ;l6.c: 124:         }
  1123     0125  1283               	bcf	3,5	;RP0=0, select bank0
  1124     0126  1303               	bcf	3,6	;RP1=0, select bank0
  1125     0127  1E0C               	btfss	12,4	;volatile
  1126     0128  292A               	goto	u1921
  1127     0129  292B               	goto	u1920
  1128     012A                     u1921:
  1129     012A  292D               	goto	l84
  1130     012B                     u1920:
  1131     012B                     l1637:
  1132                           
  1133                           ;l6.c: 125:         _delay((unsigned long)((5)*(8000000/4000.0)));;l6.c: 126:         if
      +                           (PIR1bits.TXIF)
  1134     012B  3065               	movlw	101
  1135     012C  0099               	movwf	25	;volatile
  1136     012D                     l84:	
  1137                           ;l6.c: 127:         {
  1138                           
  1139                           
  1140                           ;l6.c: 128:             TXREG = 101;
  1141     012D  300D               	movlw	13
  1142     012E  1283               	bcf	3,5	;RP0=0, select bank0
  1143     012F  1303               	bcf	3,6	;RP1=0, select bank0
  1144     0130  00D1               	movwf	??_Menu+1
  1145     0131  30FB               	movlw	251
  1146     0132  00D0               	movwf	??_Menu
  1147     0133                     u2777:
  1148     0133  0BD0               	decfsz	??_Menu,f
  1149     0134  2933               	goto	u2777
  1150     0135  0BD1               	decfsz	??_Menu+1,f
  1151     0136  2933               	goto	u2777
  1152     0137                     l1639:
  1153                           
  1154                           ;l6.c: 129:         }
  1155     0137  1283               	bcf	3,5	;RP0=0, select bank0
  1156     0138  1303               	bcf	3,6	;RP1=0, select bank0
  1157     0139  1E0C               	btfss	12,4	;volatile
  1158     013A  293C               	goto	u1931
  1159     013B  293D               	goto	u1930
  1160     013C                     u1931:
  1161     013C  293F               	goto	l85
  1162     013D                     u1930:
  1163     013D                     l1641:
  1164                           
  1165                           ;l6.c: 130:         _delay((unsigned long)((5)*(8000000/4000.0)));;l6.c: 131:         if
      +                           (PIR1bits.TXIF)
  1166     013D  3061               	movlw	97
  1167     013E  0099               	movwf	25	;volatile
  1168     013F                     l85:	
  1169                           ;l6.c: 132:         {
  1170                           
  1171                           
  1172                           ;l6.c: 133:             TXREG = 99;
  1173     013F  300D               	movlw	13
  1174     0140  1283               	bcf	3,5	;RP0=0, select bank0
  1175     0141  1303               	bcf	3,6	;RP1=0, select bank0
  1176     0142  00D1               	movwf	??_Menu+1
  1177     0143  30FB               	movlw	251
  1178     0144  00D0               	movwf	??_Menu
  1179     0145                     u2787:
  1180     0145  0BD0               	decfsz	??_Menu,f
  1181     0146  2945               	goto	u2787
  1182     0147  0BD1               	decfsz	??_Menu+1,f
  1183     0148  2945               	goto	u2787
  1184     0149                     l1643:
  1185                           
  1186                           ;l6.c: 134:         }
  1187     0149  1283               	bcf	3,5	;RP0=0, select bank0
  1188     014A  1303               	bcf	3,6	;RP1=0, select bank0
  1189     014B  1E0C               	btfss	12,4	;volatile
  1190     014C  294E               	goto	u1941
  1191     014D  294F               	goto	u1940
  1192     014E                     u1941:
  1193     014E  2951               	goto	l86
  1194     014F                     u1940:
  1195     014F                     l1645:
  1196                           
  1197                           ;l6.c: 135:         _delay((unsigned long)((5)*(8000000/4000.0)));;l6.c: 136:         if
      +                           (PIR1bits.TXIF)
  1198     014F  3020               	movlw	32
  1199     0150  0099               	movwf	25	;volatile
  1200     0151                     l86:	
  1201                           ;l6.c: 137:         {
  1202                           
  1203                           
  1204                           ;l6.c: 138:             TXREG = 117;
  1205     0151  300D               	movlw	13
  1206     0152  1283               	bcf	3,5	;RP0=0, select bank0
  1207     0153  1303               	bcf	3,6	;RP1=0, select bank0
  1208     0154  00D1               	movwf	??_Menu+1
  1209     0155  30FB               	movlw	251
  1210     0156  00D0               	movwf	??_Menu
  1211     0157                     u2797:
  1212     0157  0BD0               	decfsz	??_Menu,f
  1213     0158  2957               	goto	u2797
  1214     0159  0BD1               	decfsz	??_Menu+1,f
  1215     015A  2957               	goto	u2797
  1216     015B                     l1647:
  1217                           
  1218                           ;l6.c: 139:         }
  1219     015B  1283               	bcf	3,5	;RP0=0, select bank0
  1220     015C  1303               	bcf	3,6	;RP1=0, select bank0
  1221     015D  1E0C               	btfss	12,4	;volatile
  1222     015E  2960               	goto	u1951
  1223     015F  2961               	goto	u1950
  1224     0160                     u1951:
  1225     0160  2963               	goto	l87
  1226     0161                     u1950:
  1227     0161                     l1649:
  1228                           
  1229                           ;l6.c: 140:         _delay((unsigned long)((5)*(8000000/4000.0)));;l6.c: 141:         if
      +                           (PIR1bits.TXIF)
  1230     0161  3065               	movlw	101
  1231     0162  0099               	movwf	25	;volatile
  1232     0163                     l87:	
  1233                           ;l6.c: 142:         {
  1234                           
  1235                           
  1236                           ;l6.c: 143:             TXREG = 116;
  1237     0163  300D               	movlw	13
  1238     0164  1283               	bcf	3,5	;RP0=0, select bank0
  1239     0165  1303               	bcf	3,6	;RP1=0, select bank0
  1240     0166  00D1               	movwf	??_Menu+1
  1241     0167  30FB               	movlw	251
  1242     0168  00D0               	movwf	??_Menu
  1243     0169                     u2807:
  1244     0169  0BD0               	decfsz	??_Menu,f
  1245     016A  2969               	goto	u2807
  1246     016B  0BD1               	decfsz	??_Menu+1,f
  1247     016C  2969               	goto	u2807
  1248     016D                     l1651:
  1249                           
  1250                           ;l6.c: 144:         }
  1251     016D  1283               	bcf	3,5	;RP0=0, select bank0
  1252     016E  1303               	bcf	3,6	;RP1=0, select bank0
  1253     016F  1E0C               	btfss	12,4	;volatile
  1254     0170  2972               	goto	u1961
  1255     0171  2973               	goto	u1960
  1256     0172                     u1961:
  1257     0172  2975               	goto	l88
  1258     0173                     u1960:
  1259     0173                     l1653:
  1260                           
  1261                           ;l6.c: 145:         _delay((unsigned long)((5)*(8000000/4000.0)));;l6.c: 146:         if
      +                           (PIR1bits.TXIF)
  1262     0173  306A               	movlw	106
  1263     0174  0099               	movwf	25	;volatile
  1264     0175                     l88:	
  1265                           ;l6.c: 147:         {
  1266                           
  1267                           
  1268                           ;l6.c: 148:             TXREG = 97;
  1269     0175  300D               	movlw	13
  1270     0176  1283               	bcf	3,5	;RP0=0, select bank0
  1271     0177  1303               	bcf	3,6	;RP1=0, select bank0
  1272     0178  00D1               	movwf	??_Menu+1
  1273     0179  30FB               	movlw	251
  1274     017A  00D0               	movwf	??_Menu
  1275     017B                     u2817:
  1276     017B  0BD0               	decfsz	??_Menu,f
  1277     017C  297B               	goto	u2817
  1278     017D  0BD1               	decfsz	??_Menu+1,f
  1279     017E  297B               	goto	u2817
  1280     017F                     l1655:
  1281                           
  1282                           ;l6.c: 149:         }
  1283     017F  1283               	bcf	3,5	;RP0=0, select bank0
  1284     0180  1303               	bcf	3,6	;RP1=0, select bank0
  1285     0181  1E0C               	btfss	12,4	;volatile
  1286     0182  2984               	goto	u1971
  1287     0183  2985               	goto	u1970
  1288     0184                     u1971:
  1289     0184  2987               	goto	l89
  1290     0185                     u1970:
  1291     0185                     l1657:
  1292                           
  1293                           ;l6.c: 150:         _delay((unsigned long)((5)*(8000000/4000.0)));;l6.c: 151:         if
      +                           (PIR1bits.TXIF)
  1294     0185  3065               	movlw	101
  1295     0186  0099               	movwf	25	;volatile
  1296     0187                     l89:	
  1297                           ;l6.c: 152:         {
  1298                           
  1299                           
  1300                           ;l6.c: 153:             TXREG = 114;
  1301     0187  300D               	movlw	13
  1302     0188  1283               	bcf	3,5	;RP0=0, select bank0
  1303     0189  1303               	bcf	3,6	;RP1=0, select bank0
  1304     018A  00D1               	movwf	??_Menu+1
  1305     018B  30FB               	movlw	251
  1306     018C  00D0               	movwf	??_Menu
  1307     018D                     u2827:
  1308     018D  0BD0               	decfsz	??_Menu,f
  1309     018E  298D               	goto	u2827
  1310     018F  0BD1               	decfsz	??_Menu+1,f
  1311     0190  298D               	goto	u2827
  1312     0191                     l1659:
  1313                           
  1314                           ;l6.c: 154:         }
  1315     0191  1283               	bcf	3,5	;RP0=0, select bank0
  1316     0192  1303               	bcf	3,6	;RP1=0, select bank0
  1317     0193  1E0C               	btfss	12,4	;volatile
  1318     0194  2996               	goto	u1981
  1319     0195  2997               	goto	u1980
  1320     0196                     u1981:
  1321     0196  2999               	goto	l90
  1322     0197                     u1980:
  1323     0197                     l1661:
  1324                           
  1325                           ;l6.c: 155:         if (PIR1bits.TXIF);l6.c: 156:         {
  1326     0197  3063               	movlw	99
  1327     0198  0099               	movwf	25	;volatile
  1328     0199                     l90:	
  1329                           ;l6.c: 157:             TXREG = 63;
  1330                           
  1331                           
  1332                           ;l6.c: 158:         }
  1333     0199  300D               	movlw	13
  1334     019A  1283               	bcf	3,5	;RP0=0, select bank0
  1335     019B  1303               	bcf	3,6	;RP1=0, select bank0
  1336     019C  00D1               	movwf	??_Menu+1
  1337     019D  30FB               	movlw	251
  1338     019E  00D0               	movwf	??_Menu
  1339     019F                     u2837:
  1340     019F  0BD0               	decfsz	??_Menu,f
  1341     01A0  299F               	goto	u2837
  1342     01A1  0BD1               	decfsz	??_Menu+1,f
  1343     01A2  299F               	goto	u2837
  1344     01A3                     l1663:
  1345                           
  1346                           ;l6.c: 159: 
  1347     01A3  1283               	bcf	3,5	;RP0=0, select bank0
  1348     01A4  1303               	bcf	3,6	;RP1=0, select bank0
  1349     01A5  1E0C               	btfss	12,4	;volatile
  1350     01A6  29A8               	goto	u1991
  1351     01A7  29A9               	goto	u1990
  1352     01A8                     u1991:
  1353     01A8  29AB               	goto	l91
  1354     01A9                     u1990:
  1355     01A9                     l1665:
  1356                           
  1357                           ;l6.c: 160:         _delay((unsigned long)((5)*(8000000/4000.0)));;l6.c: 161:         if
      +                           (PIR1bits.TXIF)
  1358     01A9  3075               	movlw	117
  1359     01AA  0099               	movwf	25	;volatile
  1360     01AB                     l91:	
  1361                           ;l6.c: 162:         {
  1362                           
  1363                           
  1364                           ;l6.c: 163:             TXREG = 13;
  1365     01AB  300D               	movlw	13
  1366     01AC  1283               	bcf	3,5	;RP0=0, select bank0
  1367     01AD  1303               	bcf	3,6	;RP1=0, select bank0
  1368     01AE  00D1               	movwf	??_Menu+1
  1369     01AF  30FB               	movlw	251
  1370     01B0  00D0               	movwf	??_Menu
  1371     01B1                     u2847:
  1372     01B1  0BD0               	decfsz	??_Menu,f
  1373     01B2  29B1               	goto	u2847
  1374     01B3  0BD1               	decfsz	??_Menu+1,f
  1375     01B4  29B1               	goto	u2847
  1376     01B5                     l1667:
  1377                           
  1378                           ;l6.c: 164:         }
  1379     01B5  1283               	bcf	3,5	;RP0=0, select bank0
  1380     01B6  1303               	bcf	3,6	;RP1=0, select bank0
  1381     01B7  1E0C               	btfss	12,4	;volatile
  1382     01B8  29BA               	goto	u2001
  1383     01B9  29BB               	goto	u2000
  1384     01BA                     u2001:
  1385     01BA  29BD               	goto	l92
  1386     01BB                     u2000:
  1387     01BB                     l1669:
  1388                           
  1389                           ;l6.c: 165: ;l6.c: 166: 
  1390     01BB  3074               	movlw	116
  1391     01BC  0099               	movwf	25	;volatile
  1392     01BD                     l92:	
  1393                           ;l6.c: 167:         _delay((unsigned long)((5)*(8000000/4000.0)));
  1394                           
  1395                           
  1396                           ;l6.c: 168:         if (PIR1bits.TXIF)
  1397     01BD  300D               	movlw	13
  1398     01BE  1283               	bcf	3,5	;RP0=0, select bank0
  1399     01BF  1303               	bcf	3,6	;RP1=0, select bank0
  1400     01C0  00D1               	movwf	??_Menu+1
  1401     01C1  30FB               	movlw	251
  1402     01C2  00D0               	movwf	??_Menu
  1403     01C3                     u2857:
  1404     01C3  0BD0               	decfsz	??_Menu,f
  1405     01C4  29C3               	goto	u2857
  1406     01C5  0BD1               	decfsz	??_Menu+1,f
  1407     01C6  29C3               	goto	u2857
  1408     01C7                     l1671:
  1409                           
  1410                           ;l6.c: 169:         {
  1411     01C7  1283               	bcf	3,5	;RP0=0, select bank0
  1412     01C8  1303               	bcf	3,6	;RP1=0, select bank0
  1413     01C9  1E0C               	btfss	12,4	;volatile
  1414     01CA  29CC               	goto	u2011
  1415     01CB  29CD               	goto	u2010
  1416     01CC                     u2011:
  1417     01CC  29CF               	goto	l93
  1418     01CD                     u2010:
  1419     01CD                     l1673:
  1420                           
  1421                           ;l6.c: 170:             TXREG = 40;;l6.c: 171:         }
  1422     01CD  3061               	movlw	97
  1423     01CE  0099               	movwf	25	;volatile
  1424     01CF                     l93:	
  1425                           ;l6.c: 172: 
  1426                           
  1427                           
  1428                           ;l6.c: 173:         _delay((unsigned long)((5)*(8000000/4000.0)));
  1429     01CF  300D               	movlw	13
  1430     01D0  1283               	bcf	3,5	;RP0=0, select bank0
  1431     01D1  1303               	bcf	3,6	;RP1=0, select bank0
  1432     01D2  00D1               	movwf	??_Menu+1
  1433     01D3  30FB               	movlw	251
  1434     01D4  00D0               	movwf	??_Menu
  1435     01D5                     u2867:
  1436     01D5  0BD0               	decfsz	??_Menu,f
  1437     01D6  29D5               	goto	u2867
  1438     01D7  0BD1               	decfsz	??_Menu+1,f
  1439     01D8  29D5               	goto	u2867
  1440     01D9                     l1675:
  1441                           
  1442                           ;l6.c: 174:         if (PIR1bits.TXIF)
  1443     01D9  1283               	bcf	3,5	;RP0=0, select bank0
  1444     01DA  1303               	bcf	3,6	;RP1=0, select bank0
  1445     01DB  1E0C               	btfss	12,4	;volatile
  1446     01DC  29DE               	goto	u2021
  1447     01DD  29DF               	goto	u2020
  1448     01DE                     u2021:
  1449     01DE  29E1               	goto	l1679
  1450     01DF                     u2020:
  1451     01DF                     l1677:
  1452                           
  1453                           ;l6.c: 175:         {;l6.c: 176:             TXREG = 49;
  1454     01DF  3072               	movlw	114
  1455     01E0  0099               	movwf	25	;volatile
  1456     01E1                     l1679:
  1457                           
  1458                           ;l6.c: 178: 
  1459     01E1  1E0C               	btfss	12,4	;volatile
  1460     01E2  29E4               	goto	u2031
  1461     01E3  29E5               	goto	u2030
  1462     01E4                     u2031:
  1463     01E4  29E7               	goto	l95
  1464     01E5                     u2030:
  1465     01E5                     l1681:
  1466                           
  1467                           ;l6.c: 179:         _delay((unsigned long)((5)*(8000000/4000.0)));;l6.c: 180:         if
      +                           (PIR1bits.TXIF)
  1468     01E5  303F               	movlw	63
  1469     01E6  0099               	movwf	25	;volatile
  1470     01E7                     l95:	
  1471                           ;l6.c: 181:         {
  1472                           
  1473                           
  1474                           ;l6.c: 183:         }
  1475     01E7  300D               	movlw	13
  1476     01E8  1283               	bcf	3,5	;RP0=0, select bank0
  1477     01E9  1303               	bcf	3,6	;RP1=0, select bank0
  1478     01EA  00D1               	movwf	??_Menu+1
  1479     01EB  30FB               	movlw	251
  1480     01EC  00D0               	movwf	??_Menu
  1481     01ED                     u2877:
  1482     01ED  0BD0               	decfsz	??_Menu,f
  1483     01EE  29ED               	goto	u2877
  1484     01EF  0BD1               	decfsz	??_Menu+1,f
  1485     01F0  29ED               	goto	u2877
  1486     01F1                     l1683:
  1487                           
  1488                           ;l6.c: 184: 
  1489     01F1  1283               	bcf	3,5	;RP0=0, select bank0
  1490     01F2  1303               	bcf	3,6	;RP1=0, select bank0
  1491     01F3  1E0C               	btfss	12,4	;volatile
  1492     01F4  29F6               	goto	u2041
  1493     01F5  29F7               	goto	u2040
  1494     01F6                     u2041:
  1495     01F6  29F9               	goto	l96
  1496     01F7                     u2040:
  1497     01F7                     l1685:
  1498                           
  1499                           ;l6.c: 185:          _delay((unsigned long)((5)*(8000000/4000.0)));;l6.c: 186:         i
      +                          f (PIR1bits.TXIF)
  1500     01F7  300D               	movlw	13
  1501     01F8  0099               	movwf	25	;volatile
  1502     01F9                     l96:	
  1503                           ;l6.c: 187:         {
  1504                           
  1505                           
  1506                           ;l6.c: 190: 
  1507     01F9  300D               	movlw	13
  1508     01FA  1283               	bcf	3,5	;RP0=0, select bank0
  1509     01FB  1303               	bcf	3,6	;RP1=0, select bank0
  1510     01FC  00D1               	movwf	??_Menu+1
  1511     01FD  30FB               	movlw	251
  1512     01FE  00D0               	movwf	??_Menu
  1513     01FF                     u2887:
  1514     01FF  0BD0               	decfsz	??_Menu,f
  1515     0200  29FF               	goto	u2887
  1516     0201  0BD1               	decfsz	??_Menu+1,f
  1517     0202  29FF               	goto	u2887
  1518     0203                     l1687:
  1519                           
  1520                           ;l6.c: 191:         _delay((unsigned long)((5)*(8000000/4000.0)));
  1521     0203  1283               	bcf	3,5	;RP0=0, select bank0
  1522     0204  1303               	bcf	3,6	;RP1=0, select bank0
  1523     0205  1E0C               	btfss	12,4	;volatile
  1524     0206  2A08               	goto	u2051
  1525     0207  2A09               	goto	u2050
  1526     0208                     u2051:
  1527     0208  2A0B               	goto	l97
  1528     0209                     u2050:
  1529     0209                     l1689:
  1530                           
  1531                           ;l6.c: 192:         if (PIR1bits.TXIF);l6.c: 193:         {
  1532     0209  3028               	movlw	40
  1533     020A  0099               	movwf	25	;volatile
  1534     020B                     l97:	
  1535                           ;l6.c: 194:             TXREG = 76;
  1536                           
  1537                           
  1538                           ;l6.c: 196:         _delay((unsigned long)((5)*(8000000/4000.0)));
  1539     020B  300D               	movlw	13
  1540     020C  1283               	bcf	3,5	;RP0=0, select bank0
  1541     020D  1303               	bcf	3,6	;RP1=0, select bank0
  1542     020E  00D1               	movwf	??_Menu+1
  1543     020F  30FB               	movlw	251
  1544     0210  00D0               	movwf	??_Menu
  1545     0211                     u2897:
  1546     0211  0BD0               	decfsz	??_Menu,f
  1547     0212  2A11               	goto	u2897
  1548     0213  0BD1               	decfsz	??_Menu+1,f
  1549     0214  2A11               	goto	u2897
  1550     0215                     l1691:
  1551                           
  1552                           ;l6.c: 197:         if (PIR1bits.TXIF)
  1553     0215  1283               	bcf	3,5	;RP0=0, select bank0
  1554     0216  1303               	bcf	3,6	;RP1=0, select bank0
  1555     0217  1E0C               	btfss	12,4	;volatile
  1556     0218  2A1A               	goto	u2061
  1557     0219  2A1B               	goto	u2060
  1558     021A                     u2061:
  1559     021A  2A1D               	goto	l98
  1560     021B                     u2060:
  1561     021B                     l1693:
  1562                           
  1563                           ;l6.c: 198:         {;l6.c: 199:             TXREG = 69;
  1564     021B  3031               	movlw	49
  1565     021C  0099               	movwf	25	;volatile
  1566     021D                     l98:	
  1567                           ;l6.c: 200:         }
  1568                           
  1569                           
  1570                           ;l6.c: 202:         if (PIR1bits.TXIF)
  1571     021D  300D               	movlw	13
  1572     021E  1283               	bcf	3,5	;RP0=0, select bank0
  1573     021F  1303               	bcf	3,6	;RP1=0, select bank0
  1574     0220  00D1               	movwf	??_Menu+1
  1575     0221  30FB               	movlw	251
  1576     0222  00D0               	movwf	??_Menu
  1577     0223                     u2907:
  1578     0223  0BD0               	decfsz	??_Menu,f
  1579     0224  2A23               	goto	u2907
  1580     0225  0BD1               	decfsz	??_Menu+1,f
  1581     0226  2A23               	goto	u2907
  1582     0227                     l1695:
  1583                           
  1584                           ;l6.c: 203:         {
  1585     0227  1283               	bcf	3,5	;RP0=0, select bank0
  1586     0228  1303               	bcf	3,6	;RP1=0, select bank0
  1587     0229  1E0C               	btfss	12,4	;volatile
  1588     022A  2A2C               	goto	u2071
  1589     022B  2A2D               	goto	u2070
  1590     022C                     u2071:
  1591     022C  2A2F               	goto	l99
  1592     022D                     u2070:
  1593     022D                     l1697:
  1594                           
  1595                           ;l6.c: 204:             TXREG = 69;;l6.c: 205:         }
  1596     022D  3029               	movlw	41
  1597     022E  0099               	movwf	25	;volatile
  1598     022F                     l99:	
  1599                           ;l6.c: 206:         _delay((unsigned long)((5)*(8000000/4000.0)));
  1600                           
  1601                           
  1602                           ;l6.c: 208:         {
  1603     022F  300D               	movlw	13
  1604     0230  1283               	bcf	3,5	;RP0=0, select bank0
  1605     0231  1303               	bcf	3,6	;RP1=0, select bank0
  1606     0232  00D1               	movwf	??_Menu+1
  1607     0233  30FB               	movlw	251
  1608     0234  00D0               	movwf	??_Menu
  1609     0235                     u2917:
  1610     0235  0BD0               	decfsz	??_Menu,f
  1611     0236  2A35               	goto	u2917
  1612     0237  0BD1               	decfsz	??_Menu+1,f
  1613     0238  2A35               	goto	u2917
  1614     0239                     l1699:
  1615                           
  1616                           ;l6.c: 209:             TXREG = 82;
  1617     0239  1283               	bcf	3,5	;RP0=0, select bank0
  1618     023A  1303               	bcf	3,6	;RP1=0, select bank0
  1619     023B  1E0C               	btfss	12,4	;volatile
  1620     023C  2A3E               	goto	u2081
  1621     023D  2A3F               	goto	u2080
  1622     023E                     u2081:
  1623     023E  2A41               	goto	l100
  1624     023F                     u2080:
  1625     023F                     l1701:
  1626                           
  1627                           ;l6.c: 210:         };l6.c: 211:         _delay((unsigned long)((5)*(8000000/4000.0)));
  1628     023F  3020               	movlw	32
  1629     0240  0099               	movwf	25	;volatile
  1630     0241                     l100:	
  1631                           ;l6.c: 212:         if (PIR1bits.TXIF)
  1632                           
  1633                           
  1634                           ;l6.c: 214:             TXREG = 32;
  1635     0241  300D               	movlw	13
  1636     0242  1283               	bcf	3,5	;RP0=0, select bank0
  1637     0243  1303               	bcf	3,6	;RP1=0, select bank0
  1638     0244  00D1               	movwf	??_Menu+1
  1639     0245  30FB               	movlw	251
  1640     0246  00D0               	movwf	??_Menu
  1641     0247                     u2927:
  1642     0247  0BD0               	decfsz	??_Menu,f
  1643     0248  2A47               	goto	u2927
  1644     0249  0BD1               	decfsz	??_Menu+1,f
  1645     024A  2A47               	goto	u2927
  1646     024B                     l1703:
  1647                           
  1648                           ;l6.c: 215:         }
  1649     024B  1283               	bcf	3,5	;RP0=0, select bank0
  1650     024C  1303               	bcf	3,6	;RP1=0, select bank0
  1651     024D  1E0C               	btfss	12,4	;volatile
  1652     024E  2A50               	goto	u2091
  1653     024F  2A51               	goto	u2090
  1654     0250                     u2091:
  1655     0250  2A53               	goto	l101
  1656     0251                     u2090:
  1657     0251                     l1705:
  1658                           
  1659                           ;l6.c: 216:         _delay((unsigned long)((5)*(8000000/4000.0)));;l6.c: 217:         if
      +                           (PIR1bits.TXIF)
  1660     0251  304C               	movlw	76
  1661     0252  0099               	movwf	25	;volatile
  1662     0253                     l101:	
  1663                           ;l6.c: 218:         {
  1664                           
  1665                           
  1666                           ;l6.c: 219:             TXREG = 80;
  1667     0253  300D               	movlw	13
  1668     0254  1283               	bcf	3,5	;RP0=0, select bank0
  1669     0255  1303               	bcf	3,6	;RP1=0, select bank0
  1670     0256  00D1               	movwf	??_Menu+1
  1671     0257  30FB               	movlw	251
  1672     0258  00D0               	movwf	??_Menu
  1673     0259                     u2937:
  1674     0259  0BD0               	decfsz	??_Menu,f
  1675     025A  2A59               	goto	u2937
  1676     025B  0BD1               	decfsz	??_Menu+1,f
  1677     025C  2A59               	goto	u2937
  1678     025D                     l1707:
  1679                           
  1680                           ;l6.c: 220:         }
  1681     025D  1283               	bcf	3,5	;RP0=0, select bank0
  1682     025E  1303               	bcf	3,6	;RP1=0, select bank0
  1683     025F  1E0C               	btfss	12,4	;volatile
  1684     0260  2A62               	goto	u2101
  1685     0261  2A63               	goto	u2100
  1686     0262                     u2101:
  1687     0262  2A65               	goto	l102
  1688     0263                     u2100:
  1689     0263                     l1709:
  1690                           
  1691                           ;l6.c: 221:         _delay((unsigned long)((5)*(8000000/4000.0)));;l6.c: 222:         if
      +                           (PIR1bits.TXIF)
  1692     0263  3045               	movlw	69
  1693     0264  0099               	movwf	25	;volatile
  1694     0265                     l102:	
  1695                           ;l6.c: 223:         {
  1696                           
  1697                           
  1698                           ;l6.c: 224:             TXREG = 79;
  1699     0265  300D               	movlw	13
  1700     0266  1283               	bcf	3,5	;RP0=0, select bank0
  1701     0267  1303               	bcf	3,6	;RP1=0, select bank0
  1702     0268  00D1               	movwf	??_Menu+1
  1703     0269  30FB               	movlw	251
  1704     026A  00D0               	movwf	??_Menu
  1705     026B                     u2947:
  1706     026B  0BD0               	decfsz	??_Menu,f
  1707     026C  2A6B               	goto	u2947
  1708     026D  0BD1               	decfsz	??_Menu+1,f
  1709     026E  2A6B               	goto	u2947
  1710     026F                     l1711:
  1711                           
  1712                           ;l6.c: 225:         }
  1713     026F  1283               	bcf	3,5	;RP0=0, select bank0
  1714     0270  1303               	bcf	3,6	;RP1=0, select bank0
  1715     0271  1E0C               	btfss	12,4	;volatile
  1716     0272  2A74               	goto	u2111
  1717     0273  2A75               	goto	u2110
  1718     0274                     u2111:
  1719     0274  2A77               	goto	l103
  1720     0275                     u2110:
  1721     0275                     l1713:
  1722                           
  1723                           ;l6.c: 226:         _delay((unsigned long)((5)*(8000000/4000.0)));;l6.c: 227:         if
      +                           (PIR1bits.TXIF)
  1724     0275  3045               	movlw	69
  1725     0276  0099               	movwf	25	;volatile
  1726     0277                     l103:	
  1727                           ;l6.c: 228:         {
  1728                           
  1729                           
  1730                           ;l6.c: 229:             TXREG = 84;
  1731     0277  300D               	movlw	13
  1732     0278  1283               	bcf	3,5	;RP0=0, select bank0
  1733     0279  1303               	bcf	3,6	;RP1=0, select bank0
  1734     027A  00D1               	movwf	??_Menu+1
  1735     027B  30FB               	movlw	251
  1736     027C  00D0               	movwf	??_Menu
  1737     027D                     u2957:
  1738     027D  0BD0               	decfsz	??_Menu,f
  1739     027E  2A7D               	goto	u2957
  1740     027F  0BD1               	decfsz	??_Menu+1,f
  1741     0280  2A7D               	goto	u2957
  1742     0281                     l1715:
  1743                           
  1744                           ;l6.c: 230:         }
  1745     0281  1283               	bcf	3,5	;RP0=0, select bank0
  1746     0282  1303               	bcf	3,6	;RP1=0, select bank0
  1747     0283  1E0C               	btfss	12,4	;volatile
  1748     0284  2A86               	goto	u2121
  1749     0285  2A87               	goto	u2120
  1750     0286                     u2121:
  1751     0286  2A89               	goto	l104
  1752     0287                     u2120:
  1753     0287                     l1717:
  1754                           
  1755                           ;l6.c: 231:         _delay((unsigned long)((5)*(8000000/4000.0)));;l6.c: 232:         if
      +                           (PIR1bits.TXIF)
  1756     0287  3052               	movlw	82
  1757     0288  0099               	movwf	25	;volatile
  1758     0289                     l104:	
  1759                           ;l6.c: 233:         {
  1760                           
  1761                           
  1762                           ;l6.c: 234:             TXREG = 69;
  1763     0289  300D               	movlw	13
  1764     028A  1283               	bcf	3,5	;RP0=0, select bank0
  1765     028B  1303               	bcf	3,6	;RP1=0, select bank0
  1766     028C  00D1               	movwf	??_Menu+1
  1767     028D  30FB               	movlw	251
  1768     028E  00D0               	movwf	??_Menu
  1769     028F                     u2967:
  1770     028F  0BD0               	decfsz	??_Menu,f
  1771     0290  2A8F               	goto	u2967
  1772     0291  0BD1               	decfsz	??_Menu+1,f
  1773     0292  2A8F               	goto	u2967
  1774     0293                     l1719:
  1775                           
  1776                           ;l6.c: 235:         }
  1777     0293  1283               	bcf	3,5	;RP0=0, select bank0
  1778     0294  1303               	bcf	3,6	;RP1=0, select bank0
  1779     0295  1E0C               	btfss	12,4	;volatile
  1780     0296  2A98               	goto	u2131
  1781     0297  2A99               	goto	u2130
  1782     0298                     u2131:
  1783     0298  2A9B               	goto	l105
  1784     0299                     u2130:
  1785     0299                     l1721:
  1786                           
  1787                           ;l6.c: 236:         _delay((unsigned long)((5)*(8000000/4000.0)));;l6.c: 237:         if
      +                           (PIR1bits.TXIF)
  1788     0299  3020               	movlw	32
  1789     029A  0099               	movwf	25	;volatile
  1790     029B                     l105:	
  1791                           ;l6.c: 238:         {
  1792                           
  1793                           
  1794                           ;l6.c: 239:             TXREG = 78;
  1795     029B  300D               	movlw	13
  1796     029C  1283               	bcf	3,5	;RP0=0, select bank0
  1797     029D  1303               	bcf	3,6	;RP1=0, select bank0
  1798     029E  00D1               	movwf	??_Menu+1
  1799     029F  30FB               	movlw	251
  1800     02A0  00D0               	movwf	??_Menu
  1801     02A1                     u2977:
  1802     02A1  0BD0               	decfsz	??_Menu,f
  1803     02A2  2AA1               	goto	u2977
  1804     02A3  0BD1               	decfsz	??_Menu+1,f
  1805     02A4  2AA1               	goto	u2977
  1806     02A5                     l1723:
  1807                           
  1808                           ;l6.c: 240:         }
  1809     02A5  1283               	bcf	3,5	;RP0=0, select bank0
  1810     02A6  1303               	bcf	3,6	;RP1=0, select bank0
  1811     02A7  1E0C               	btfss	12,4	;volatile
  1812     02A8  2AAA               	goto	u2141
  1813     02A9  2AAB               	goto	u2140
  1814     02AA                     u2141:
  1815     02AA  2AAD               	goto	l106
  1816     02AB                     u2140:
  1817     02AB                     l1725:
  1818                           
  1819                           ;l6.c: 241:         _delay((unsigned long)((5)*(8000000/4000.0)));;l6.c: 242:         if
      +                           (PIR1bits.TXIF)
  1820     02AB  3050               	movlw	80
  1821     02AC  0099               	movwf	25	;volatile
  1822     02AD                     l106:	
  1823                           ;l6.c: 243:         {
  1824                           
  1825                           
  1826                           ;l6.c: 244:             TXREG = 69;
  1827     02AD  300D               	movlw	13
  1828     02AE  1283               	bcf	3,5	;RP0=0, select bank0
  1829     02AF  1303               	bcf	3,6	;RP1=0, select bank0
  1830     02B0  00D1               	movwf	??_Menu+1
  1831     02B1  30FB               	movlw	251
  1832     02B2  00D0               	movwf	??_Menu
  1833     02B3                     u2987:
  1834     02B3  0BD0               	decfsz	??_Menu,f
  1835     02B4  2AB3               	goto	u2987
  1836     02B5  0BD1               	decfsz	??_Menu+1,f
  1837     02B6  2AB3               	goto	u2987
  1838     02B7                     l1727:
  1839                           
  1840                           ;l6.c: 245:         }
  1841     02B7  1283               	bcf	3,5	;RP0=0, select bank0
  1842     02B8  1303               	bcf	3,6	;RP1=0, select bank0
  1843     02B9  1E0C               	btfss	12,4	;volatile
  1844     02BA  2ABC               	goto	u2151
  1845     02BB  2ABD               	goto	u2150
  1846     02BC                     u2151:
  1847     02BC  2ABF               	goto	l107
  1848     02BD                     u2150:
  1849     02BD                     l1729:
  1850                           
  1851                           ;l6.c: 246:         _delay((unsigned long)((5)*(8000000/4000.0)));;l6.c: 247:         if
      +                           (PIR1bits.TXIF)
  1852     02BD  304F               	movlw	79
  1853     02BE  0099               	movwf	25	;volatile
  1854     02BF                     l107:	
  1855                           ;l6.c: 248:         {
  1856                           
  1857                           
  1858                           ;l6.c: 249:             TXREG = 78;
  1859     02BF  300D               	movlw	13
  1860     02C0  1283               	bcf	3,5	;RP0=0, select bank0
  1861     02C1  1303               	bcf	3,6	;RP1=0, select bank0
  1862     02C2  00D1               	movwf	??_Menu+1
  1863     02C3  30FB               	movlw	251
  1864     02C4  00D0               	movwf	??_Menu
  1865     02C5                     u2997:
  1866     02C5  0BD0               	decfsz	??_Menu,f
  1867     02C6  2AC5               	goto	u2997
  1868     02C7  0BD1               	decfsz	??_Menu+1,f
  1869     02C8  2AC5               	goto	u2997
  1870     02C9                     l1731:
  1871                           
  1872                           ;l6.c: 250:         }
  1873     02C9  1283               	bcf	3,5	;RP0=0, select bank0
  1874     02CA  1303               	bcf	3,6	;RP1=0, select bank0
  1875     02CB  1E0C               	btfss	12,4	;volatile
  1876     02CC  2ACE               	goto	u2161
  1877     02CD  2ACF               	goto	u2160
  1878     02CE                     u2161:
  1879     02CE  2AD1               	goto	l108
  1880     02CF                     u2160:
  1881     02CF                     l1733:
  1882                           
  1883                           ;l6.c: 251:         _delay((unsigned long)((5)*(8000000/4000.0)));;l6.c: 252:         if
      +                           (PIR1bits.TXIF)
  1884     02CF  3054               	movlw	84
  1885     02D0  0099               	movwf	25	;volatile
  1886     02D1                     l108:	
  1887                           ;l6.c: 253:         {
  1888                           
  1889                           
  1890                           ;l6.c: 254:             TXREG = 67;
  1891     02D1  300D               	movlw	13
  1892     02D2  1283               	bcf	3,5	;RP0=0, select bank0
  1893     02D3  1303               	bcf	3,6	;RP1=0, select bank0
  1894     02D4  00D1               	movwf	??_Menu+1
  1895     02D5  30FB               	movlw	251
  1896     02D6  00D0               	movwf	??_Menu
  1897     02D7                     u3007:
  1898     02D7  0BD0               	decfsz	??_Menu,f
  1899     02D8  2AD7               	goto	u3007
  1900     02D9  0BD1               	decfsz	??_Menu+1,f
  1901     02DA  2AD7               	goto	u3007
  1902     02DB                     l1735:
  1903                           
  1904                           ;l6.c: 255:         }
  1905     02DB  1283               	bcf	3,5	;RP0=0, select bank0
  1906     02DC  1303               	bcf	3,6	;RP1=0, select bank0
  1907     02DD  1E0C               	btfss	12,4	;volatile
  1908     02DE  2AE0               	goto	u2171
  1909     02DF  2AE1               	goto	u2170
  1910     02E0                     u2171:
  1911     02E0  2AE3               	goto	l109
  1912     02E1                     u2170:
  1913     02E1                     l1737:
  1914                           
  1915                           ;l6.c: 256:         _delay((unsigned long)((5)*(8000000/4000.0)));;l6.c: 257:         if
      +                           (PIR1bits.TXIF)
  1916     02E1  3045               	movlw	69
  1917     02E2  0099               	movwf	25	;volatile
  1918     02E3                     l109:	
  1919                           ;l6.c: 258:         {
  1920                           
  1921                           
  1922                           ;l6.c: 259:             TXREG = 73;
  1923     02E3  300D               	movlw	13
  1924     02E4  1283               	bcf	3,5	;RP0=0, select bank0
  1925     02E5  1303               	bcf	3,6	;RP1=0, select bank0
  1926     02E6  00D1               	movwf	??_Menu+1
  1927     02E7  30FB               	movlw	251
  1928     02E8  00D0               	movwf	??_Menu
  1929     02E9                     u3017:
  1930     02E9  0BD0               	decfsz	??_Menu,f
  1931     02EA  2AE9               	goto	u3017
  1932     02EB  0BD1               	decfsz	??_Menu+1,f
  1933     02EC  2AE9               	goto	u3017
  1934     02ED                     l1739:
  1935                           
  1936                           ;l6.c: 260:         }
  1937     02ED  1283               	bcf	3,5	;RP0=0, select bank0
  1938     02EE  1303               	bcf	3,6	;RP1=0, select bank0
  1939     02EF  1E0C               	btfss	12,4	;volatile
  1940     02F0  2AF2               	goto	u2181
  1941     02F1  2AF3               	goto	u2180
  1942     02F2                     u2181:
  1943     02F2  2AF5               	goto	l110
  1944     02F3                     u2180:
  1945     02F3                     l1741:
  1946                           
  1947                           ;l6.c: 261:         _delay((unsigned long)((5)*(8000000/4000.0)));;l6.c: 262:         if
      +                           (PIR1bits.TXIF)
  1948     02F3  304E               	movlw	78
  1949     02F4  0099               	movwf	25	;volatile
  1950     02F5                     l110:	
  1951                           ;l6.c: 263:         {
  1952                           
  1953                           
  1954                           ;l6.c: 264:             TXREG = 79;
  1955     02F5  300D               	movlw	13
  1956     02F6  1283               	bcf	3,5	;RP0=0, select bank0
  1957     02F7  1303               	bcf	3,6	;RP1=0, select bank0
  1958     02F8  00D1               	movwf	??_Menu+1
  1959     02F9  30FB               	movlw	251
  1960     02FA  00D0               	movwf	??_Menu
  1961     02FB                     u3027:
  1962     02FB  0BD0               	decfsz	??_Menu,f
  1963     02FC  2AFB               	goto	u3027
  1964     02FD  0BD1               	decfsz	??_Menu+1,f
  1965     02FE  2AFB               	goto	u3027
  1966     02FF                     l1743:
  1967                           
  1968                           ;l6.c: 265:         }
  1969     02FF  1283               	bcf	3,5	;RP0=0, select bank0
  1970     0300  1303               	bcf	3,6	;RP1=0, select bank0
  1971     0301  1E0C               	btfss	12,4	;volatile
  1972     0302  2B04               	goto	u2191
  1973     0303  2B05               	goto	u2190
  1974     0304                     u2191:
  1975     0304  2B07               	goto	l111
  1976     0305                     u2190:
  1977     0305                     l1745:
  1978                           
  1979                           ;l6.c: 266:         _delay((unsigned long)((5)*(8000000/4000.0)));;l6.c: 267:         if
      +                           (PIR1bits.TXIF)
  1980     0305  3045               	movlw	69
  1981     0306  0099               	movwf	25	;volatile
  1982     0307                     l111:	
  1983                           ;l6.c: 268:         {
  1984                           
  1985                           
  1986                           ;l6.c: 269:             TXREG = 77;
  1987     0307  300D               	movlw	13
  1988     0308  1283               	bcf	3,5	;RP0=0, select bank0
  1989     0309  1303               	bcf	3,6	;RP1=0, select bank0
  1990     030A  00D1               	movwf	??_Menu+1
  1991     030B  30FB               	movlw	251
  1992     030C  00D0               	movwf	??_Menu
  1993     030D                     u3037:
  1994     030D  0BD0               	decfsz	??_Menu,f
  1995     030E  2B0D               	goto	u3037
  1996     030F  0BD1               	decfsz	??_Menu+1,f
  1997     0310  2B0D               	goto	u3037
  1998     0311                     l1747:
  1999                           
  2000                           ;l6.c: 270:         }
  2001     0311  1283               	bcf	3,5	;RP0=0, select bank0
  2002     0312  1303               	bcf	3,6	;RP1=0, select bank0
  2003     0313  1E0C               	btfss	12,4	;volatile
  2004     0314  2B16               	goto	u2201
  2005     0315  2B17               	goto	u2200
  2006     0316                     u2201:
  2007     0316  2B19               	goto	l112
  2008     0317                     u2200:
  2009     0317                     l1749:
  2010                           
  2011                           ;l6.c: 271:         _delay((unsigned long)((5)*(8000000/4000.0)));;l6.c: 272:         if
      +                           (PIR1bits.TXIF)
  2012     0317  304E               	movlw	78
  2013     0318  0099               	movwf	25	;volatile
  2014     0319                     l112:	
  2015                           ;l6.c: 273:         {
  2016                           
  2017                           
  2018                           ;l6.c: 274:             TXREG = 69;
  2019     0319  300D               	movlw	13
  2020     031A  1283               	bcf	3,5	;RP0=0, select bank0
  2021     031B  1303               	bcf	3,6	;RP1=0, select bank0
  2022     031C  00D1               	movwf	??_Menu+1
  2023     031D  30FB               	movlw	251
  2024     031E  00D0               	movwf	??_Menu
  2025     031F                     u3047:
  2026     031F  0BD0               	decfsz	??_Menu,f
  2027     0320  2B1F               	goto	u3047
  2028     0321  0BD1               	decfsz	??_Menu+1,f
  2029     0322  2B1F               	goto	u3047
  2030     0323                     l1751:
  2031                           
  2032                           ;l6.c: 275:         }
  2033     0323  1283               	bcf	3,5	;RP0=0, select bank0
  2034     0324  1303               	bcf	3,6	;RP1=0, select bank0
  2035     0325  1E0C               	btfss	12,4	;volatile
  2036     0326  2B28               	goto	u2211
  2037     0327  2B29               	goto	u2210
  2038     0328                     u2211:
  2039     0328  2B2B               	goto	l113
  2040     0329                     u2210:
  2041     0329                     l1753:
  2042                           
  2043                           ;l6.c: 276:         _delay((unsigned long)((5)*(8000000/4000.0)));;l6.c: 277:         if
      +                           (PIR1bits.TXIF)
  2044     0329  3043               	movlw	67
  2045     032A  0099               	movwf	25	;volatile
  2046     032B                     l113:	
  2047                           ;l6.c: 278:         {
  2048                           
  2049                           
  2050                           ;l6.c: 279:             TXREG = 84;
  2051     032B  300D               	movlw	13
  2052     032C  1283               	bcf	3,5	;RP0=0, select bank0
  2053     032D  1303               	bcf	3,6	;RP1=0, select bank0
  2054     032E  00D1               	movwf	??_Menu+1
  2055     032F  30FB               	movlw	251
  2056     0330  00D0               	movwf	??_Menu
  2057     0331                     u3057:
  2058     0331  0BD0               	decfsz	??_Menu,f
  2059     0332  2B31               	goto	u3057
  2060     0333  0BD1               	decfsz	??_Menu+1,f
  2061     0334  2B31               	goto	u3057
  2062     0335                     l1755:
  2063                           
  2064                           ;l6.c: 280:         }
  2065     0335  1283               	bcf	3,5	;RP0=0, select bank0
  2066     0336  1303               	bcf	3,6	;RP1=0, select bank0
  2067     0337  1E0C               	btfss	12,4	;volatile
  2068     0338  2B3A               	goto	u2221
  2069     0339  2B3B               	goto	u2220
  2070     033A                     u2221:
  2071     033A  2B3D               	goto	l114
  2072     033B                     u2220:
  2073     033B                     l1757:
  2074                           
  2075                           ;l6.c: 281:         _delay((unsigned long)((5)*(8000000/4000.0)));;l6.c: 282:         if
      +                           (PIR1bits.TXIF)
  2076     033B  3049               	movlw	73
  2077     033C  0099               	movwf	25	;volatile
  2078     033D                     l114:	
  2079                           ;l6.c: 283:         {
  2080                           
  2081                           
  2082                           ;l6.c: 284:             TXREG = 82;
  2083     033D  300D               	movlw	13
  2084     033E  1283               	bcf	3,5	;RP0=0, select bank0
  2085     033F  1303               	bcf	3,6	;RP1=0, select bank0
  2086     0340  00D1               	movwf	??_Menu+1
  2087     0341  30FB               	movlw	251
  2088     0342  00D0               	movwf	??_Menu
  2089     0343                     u3067:
  2090     0343  0BD0               	decfsz	??_Menu,f
  2091     0344  2B43               	goto	u3067
  2092     0345  0BD1               	decfsz	??_Menu+1,f
  2093     0346  2B43               	goto	u3067
  2094     0347                     l1759:
  2095                           
  2096                           ;l6.c: 285:         }
  2097     0347  1283               	bcf	3,5	;RP0=0, select bank0
  2098     0348  1303               	bcf	3,6	;RP1=0, select bank0
  2099     0349  1E0C               	btfss	12,4	;volatile
  2100     034A  2B4C               	goto	u2231
  2101     034B  2B4D               	goto	u2230
  2102     034C                     u2231:
  2103     034C  2B4F               	goto	l115
  2104     034D                     u2230:
  2105     034D                     l1761:
  2106                           
  2107                           ;l6.c: 286:         _delay((unsigned long)((5)*(8000000/4000.0)));;l6.c: 287:         if
      +                           (PIR1bits.TXIF)
  2108     034D  304F               	movlw	79
  2109     034E  0099               	movwf	25	;volatile
  2110     034F                     l115:	
  2111                           ;l6.c: 288:         {
  2112                           
  2113                           
  2114                           ;l6.c: 289:             TXREG = 79;
  2115     034F  300D               	movlw	13
  2116     0350  1283               	bcf	3,5	;RP0=0, select bank0
  2117     0351  1303               	bcf	3,6	;RP1=0, select bank0
  2118     0352  00D1               	movwf	??_Menu+1
  2119     0353  30FB               	movlw	251
  2120     0354  00D0               	movwf	??_Menu
  2121     0355                     u3077:
  2122     0355  0BD0               	decfsz	??_Menu,f
  2123     0356  2B55               	goto	u3077
  2124     0357  0BD1               	decfsz	??_Menu+1,f
  2125     0358  2B55               	goto	u3077
  2126     0359                     l1763:
  2127                           
  2128                           ;l6.c: 290:         }
  2129     0359  1283               	bcf	3,5	;RP0=0, select bank0
  2130     035A  1303               	bcf	3,6	;RP1=0, select bank0
  2131     035B  1E0C               	btfss	12,4	;volatile
  2132     035C  2B5E               	goto	u2241
  2133     035D  2B5F               	goto	u2240
  2134     035E                     u2241:
  2135     035E  2B61               	goto	l116
  2136     035F                     u2240:
  2137     035F                     l1765:
  2138                           
  2139                           ;l6.c: 291: ;l6.c: 292:         _delay((unsigned long)((5)*(8000000/4000.0)));
  2140     035F  304D               	movlw	77
  2141     0360  0099               	movwf	25	;volatile
  2142     0361                     l116:	
  2143                           ;l6.c: 293:         if (PIR1bits.TXIF)
  2144                           
  2145                           
  2146                           ;l6.c: 294:         {
  2147     0361  300D               	movlw	13
  2148     0362  1283               	bcf	3,5	;RP0=0, select bank0
  2149     0363  1303               	bcf	3,6	;RP1=0, select bank0
  2150     0364  00D1               	movwf	??_Menu+1
  2151     0365  30FB               	movlw	251
  2152     0366  00D0               	movwf	??_Menu
  2153     0367                     u3087:
  2154     0367  0BD0               	decfsz	??_Menu,f
  2155     0368  2B67               	goto	u3087
  2156     0369  0BD1               	decfsz	??_Menu+1,f
  2157     036A  2B67               	goto	u3087
  2158     036B                     l1767:
  2159                           
  2160                           ;l6.c: 295:             TXREG = 10;
  2161     036B  1283               	bcf	3,5	;RP0=0, select bank0
  2162     036C  1303               	bcf	3,6	;RP1=0, select bank0
  2163     036D  1E0C               	btfss	12,4	;volatile
  2164     036E  2B70               	goto	u2251
  2165     036F  2B71               	goto	u2250
  2166     0370                     u2251:
  2167     0370  2B73               	goto	l117
  2168     0371                     u2250:
  2169     0371                     l1769:
  2170                           
  2171                           ;l6.c: 296:         };l6.c: 297: 
  2172     0371  3045               	movlw	69
  2173     0372  0099               	movwf	25	;volatile
  2174     0373                     l117:	
  2175                           ;l6.c: 298:         _delay((unsigned long)((5)*(8000000/4000.0)));
  2176                           
  2177                           
  2178                           ;l6.c: 299:         if (PIR1bits.TXIF)
  2179     0373  300D               	movlw	13
  2180     0374  1283               	bcf	3,5	;RP0=0, select bank0
  2181     0375  1303               	bcf	3,6	;RP1=0, select bank0
  2182     0376  00D1               	movwf	??_Menu+1
  2183     0377  30FB               	movlw	251
  2184     0378  00D0               	movwf	??_Menu
  2185     0379                     u3097:
  2186     0379  0BD0               	decfsz	??_Menu,f
  2187     037A  2B79               	goto	u3097
  2188     037B  0BD1               	decfsz	??_Menu+1,f
  2189     037C  2B79               	goto	u3097
  2190     037D                     l1771:
  2191                           
  2192                           ;l6.c: 300:         {
  2193     037D  1283               	bcf	3,5	;RP0=0, select bank0
  2194     037E  1303               	bcf	3,6	;RP1=0, select bank0
  2195     037F  1E0C               	btfss	12,4	;volatile
  2196     0380  2B82               	goto	u2261
  2197     0381  2B83               	goto	u2260
  2198     0382                     u2261:
  2199     0382  2B85               	goto	l118
  2200     0383                     u2260:
  2201     0383                     l1773:
  2202                           
  2203                           ;l6.c: 301:             TXREG = 32;;l6.c: 302:         }
  2204     0383  3054               	movlw	84
  2205     0384  0099               	movwf	25	;volatile
  2206     0385                     l118:	
  2207                           ;l6.c: 303: 
  2208                           
  2209                           
  2210                           ;l6.c: 304: 
  2211     0385  300D               	movlw	13
  2212     0386  1283               	bcf	3,5	;RP0=0, select bank0
  2213     0387  1303               	bcf	3,6	;RP1=0, select bank0
  2214     0388  00D1               	movwf	??_Menu+1
  2215     0389  30FB               	movlw	251
  2216     038A  00D0               	movwf	??_Menu
  2217     038B                     u3107:
  2218     038B  0BD0               	decfsz	??_Menu,f
  2219     038C  2B8B               	goto	u3107
  2220     038D  0BD1               	decfsz	??_Menu+1,f
  2221     038E  2B8B               	goto	u3107
  2222     038F                     l1775:
  2223                           
  2224                           ;l6.c: 305:         _delay((unsigned long)((5)*(8000000/4000.0)));
  2225     038F  1283               	bcf	3,5	;RP0=0, select bank0
  2226     0390  1303               	bcf	3,6	;RP1=0, select bank0
  2227     0391  1E0C               	btfss	12,4	;volatile
  2228     0392  2B94               	goto	u2271
  2229     0393  2B95               	goto	u2270
  2230     0394                     u2271:
  2231     0394  2B97               	goto	l119
  2232     0395                     u2270:
  2233     0395                     l1777:
  2234                           
  2235                           ;l6.c: 306:         if (PIR1bits.TXIF);l6.c: 307:         {
  2236     0395  3052               	movlw	82
  2237     0396  0099               	movwf	25	;volatile
  2238     0397                     l119:	
  2239                           ;l6.c: 308:             TXREG = 13;
  2240                           
  2241                           
  2242                           ;l6.c: 309:         }
  2243     0397  300D               	movlw	13
  2244     0398  1283               	bcf	3,5	;RP0=0, select bank0
  2245     0399  1303               	bcf	3,6	;RP1=0, select bank0
  2246     039A  00D1               	movwf	??_Menu+1
  2247     039B  30FB               	movlw	251
  2248     039C  00D0               	movwf	??_Menu
  2249     039D                     u3117:
  2250     039D  0BD0               	decfsz	??_Menu,f
  2251     039E  2B9D               	goto	u3117
  2252     039F  0BD1               	decfsz	??_Menu+1,f
  2253     03A0  2B9D               	goto	u3117
  2254     03A1                     l1779:
  2255                           
  2256                           ;l6.c: 310: 
  2257     03A1  1283               	bcf	3,5	;RP0=0, select bank0
  2258     03A2  1303               	bcf	3,6	;RP1=0, select bank0
  2259     03A3  1E0C               	btfss	12,4	;volatile
  2260     03A4  2BA6               	goto	u2281
  2261     03A5  2BA7               	goto	u2280
  2262     03A6                     u2281:
  2263     03A6  2BA9               	goto	l120
  2264     03A7                     u2280:
  2265     03A7                     l1781:
  2266                           
  2267                           ;l6.c: 311:         _delay((unsigned long)((5)*(8000000/4000.0)));;l6.c: 312:         if
      +                           (PIR1bits.TXIF)
  2268     03A7  304F               	movlw	79
  2269     03A8  0099               	movwf	25	;volatile
  2270     03A9                     l120:	
  2271                           ;l6.c: 313:         {
  2272                           
  2273                           
  2274                           ;l6.c: 315:         }
  2275     03A9  300D               	movlw	13
  2276     03AA  1283               	bcf	3,5	;RP0=0, select bank0
  2277     03AB  1303               	bcf	3,6	;RP1=0, select bank0
  2278     03AC  00D1               	movwf	??_Menu+1
  2279     03AD  30FB               	movlw	251
  2280     03AE  00D0               	movwf	??_Menu
  2281     03AF                     u3127:
  2282     03AF  0BD0               	decfsz	??_Menu,f
  2283     03B0  2BAF               	goto	u3127
  2284     03B1  0BD1               	decfsz	??_Menu+1,f
  2285     03B2  2BAF               	goto	u3127
  2286     03B3                     l1783:
  2287                           
  2288                           ;l6.c: 316:         _delay((unsigned long)((5)*(8000000/4000.0)));
  2289     03B3  1283               	bcf	3,5	;RP0=0, select bank0
  2290     03B4  1303               	bcf	3,6	;RP1=0, select bank0
  2291     03B5  1E0C               	btfss	12,4	;volatile
  2292     03B6  2BB8               	goto	u2291
  2293     03B7  2BB9               	goto	u2290
  2294     03B8                     u2291:
  2295     03B8  2BBB               	goto	l121
  2296     03B9                     u2290:
  2297     03B9                     l1785:
  2298                           
  2299                           ;l6.c: 317:         if (PIR1bits.TXIF);l6.c: 318:         {
  2300     03B9  300A               	movlw	10
  2301     03BA  0099               	movwf	25	;volatile
  2302     03BB                     l121:	
  2303                           ;l6.c: 319:             TXREG = 50;
  2304                           
  2305                           
  2306                           ;l6.c: 321:         _delay((unsigned long)((5)*(8000000/4000.0)));
  2307     03BB  300D               	movlw	13
  2308     03BC  1283               	bcf	3,5	;RP0=0, select bank0
  2309     03BD  1303               	bcf	3,6	;RP1=0, select bank0
  2310     03BE  00D1               	movwf	??_Menu+1
  2311     03BF  30FB               	movlw	251
  2312     03C0  00D0               	movwf	??_Menu
  2313     03C1                     u3137:
  2314     03C1  0BD0               	decfsz	??_Menu,f
  2315     03C2  2BC1               	goto	u3137
  2316     03C3  0BD1               	decfsz	??_Menu+1,f
  2317     03C4  2BC1               	goto	u3137
  2318     03C5                     l1787:
  2319                           
  2320                           ;l6.c: 322:         if (PIR1bits.TXIF)
  2321     03C5  1283               	bcf	3,5	;RP0=0, select bank0
  2322     03C6  1303               	bcf	3,6	;RP1=0, select bank0
  2323     03C7  1E0C               	btfss	12,4	;volatile
  2324     03C8  2BCA               	goto	u2301
  2325     03C9  2BCB               	goto	u2300
  2326     03CA                     u2301:
  2327     03CA  2BCD               	goto	l122
  2328     03CB                     u2300:
  2329     03CB                     l1789:
  2330                           
  2331                           ;l6.c: 323:         {;l6.c: 324:             TXREG = 41;
  2332     03CB  3020               	movlw	32
  2333     03CC  0099               	movwf	25	;volatile
  2334     03CD                     l122:	
  2335                           ;l6.c: 325:         }
  2336                           
  2337                           
  2338                           ;l6.c: 328:         {
  2339     03CD  300D               	movlw	13
  2340     03CE  1283               	bcf	3,5	;RP0=0, select bank0
  2341     03CF  1303               	bcf	3,6	;RP1=0, select bank0
  2342     03D0  00D1               	movwf	??_Menu+1
  2343     03D1  30FB               	movlw	251
  2344     03D2  00D0               	movwf	??_Menu
  2345     03D3                     u3147:
  2346     03D3  0BD0               	decfsz	??_Menu,f
  2347     03D4  2BD3               	goto	u3147
  2348     03D5  0BD1               	decfsz	??_Menu+1,f
  2349     03D6  2BD3               	goto	u3147
  2350     03D7                     l1791:
  2351                           
  2352                           ;l6.c: 329:             TXREG = 32;
  2353     03D7  1283               	bcf	3,5	;RP0=0, select bank0
  2354     03D8  1303               	bcf	3,6	;RP1=0, select bank0
  2355     03D9  1E0C               	btfss	12,4	;volatile
  2356     03DA  2BDC               	goto	u2311
  2357     03DB  2BDD               	goto	u2310
  2358     03DC                     u2311:
  2359     03DC  2BDF               	goto	l123
  2360     03DD                     u2310:
  2361     03DD                     l1793:
  2362                           
  2363                           ;l6.c: 330:         };l6.c: 331:         _delay((unsigned long)((5)*(8000000/4000.0)));
  2364     03DD  300D               	movlw	13
  2365     03DE  0099               	movwf	25	;volatile
  2366     03DF                     l123:	
  2367                           ;l6.c: 332:         if (PIR1bits.TXIF)
  2368                           
  2369                           
  2370                           ;l6.c: 334:             TXREG = 69;
  2371     03DF  300D               	movlw	13
  2372     03E0  1283               	bcf	3,5	;RP0=0, select bank0
  2373     03E1  1303               	bcf	3,6	;RP1=0, select bank0
  2374     03E2  00D1               	movwf	??_Menu+1
  2375     03E3  30FB               	movlw	251
  2376     03E4  00D0               	movwf	??_Menu
  2377     03E5                     u3157:
  2378     03E5  0BD0               	decfsz	??_Menu,f
  2379     03E6  2BE5               	goto	u3157
  2380     03E7  0BD1               	decfsz	??_Menu+1,f
  2381     03E8  2BE5               	goto	u3157
  2382     03E9                     l1795:
  2383                           
  2384                           ;l6.c: 335:         }
  2385     03E9  1283               	bcf	3,5	;RP0=0, select bank0
  2386     03EA  1303               	bcf	3,6	;RP1=0, select bank0
  2387     03EB  1E0C               	btfss	12,4	;volatile
  2388     03EC  2BEE               	goto	u2321
  2389     03ED  2BEF               	goto	u2320
  2390     03EE                     u2321:
  2391     03EE  2BF1               	goto	l124
  2392     03EF                     u2320:
  2393     03EF                     l1797:
  2394                           
  2395                           ;l6.c: 336:         _delay((unsigned long)((5)*(8000000/4000.0)));;l6.c: 337:         if
      +                           (PIR1bits.TXIF)
  2396     03EF  3028               	movlw	40
  2397     03F0  0099               	movwf	25	;volatile
  2398     03F1                     l124:	
  2399                           ;l6.c: 338:         {
  2400                           
  2401                           
  2402                           ;l6.c: 339:             TXREG = 78;
  2403     03F1  300D               	movlw	13
  2404     03F2  1283               	bcf	3,5	;RP0=0, select bank0
  2405     03F3  1303               	bcf	3,6	;RP1=0, select bank0
  2406     03F4  00D1               	movwf	??_Menu+1
  2407     03F5  30FB               	movlw	251
  2408     03F6  00D0               	movwf	??_Menu
  2409     03F7                     u3167:
  2410     03F7  0BD0               	decfsz	??_Menu,f
  2411     03F8  2BF7               	goto	u3167
  2412     03F9  0BD1               	decfsz	??_Menu+1,f
  2413     03FA  2BF7               	goto	u3167
  2414     03FB                     l1799:
  2415                           
  2416                           ;l6.c: 340:         }
  2417     03FB  1283               	bcf	3,5	;RP0=0, select bank0
  2418     03FC  1303               	bcf	3,6	;RP1=0, select bank0
  2419     03FD  1E0C               	btfss	12,4	;volatile
  2420     03FE  2C00               	goto	u2331
  2421     03FF  2C01               	goto	u2330
  2422     0400                     u2331:
  2423     0400  2C03               	goto	l125
  2424     0401                     u2330:
  2425     0401                     l1801:
  2426                           
  2427                           ;l6.c: 341:         _delay((unsigned long)((5)*(8000000/4000.0)));;l6.c: 342:         if
      +                           (PIR1bits.TXIF)
  2428     0401  3032               	movlw	50
  2429     0402  0099               	movwf	25	;volatile
  2430     0403                     l125:	
  2431                           ;l6.c: 343:         {
  2432                           
  2433                           
  2434                           ;l6.c: 344:             TXREG = 86;
  2435     0403  300D               	movlw	13
  2436     0404  1283               	bcf	3,5	;RP0=0, select bank0
  2437     0405  1303               	bcf	3,6	;RP1=0, select bank0
  2438     0406  00D1               	movwf	??_Menu+1
  2439     0407  30FB               	movlw	251
  2440     0408  00D0               	movwf	??_Menu
  2441     0409                     u3177:
  2442     0409  0BD0               	decfsz	??_Menu,f
  2443     040A  2C09               	goto	u3177
  2444     040B  0BD1               	decfsz	??_Menu+1,f
  2445     040C  2C09               	goto	u3177
  2446     040D                     l1803:
  2447                           
  2448                           ;l6.c: 345:         }
  2449     040D  1283               	bcf	3,5	;RP0=0, select bank0
  2450     040E  1303               	bcf	3,6	;RP1=0, select bank0
  2451     040F  1E0C               	btfss	12,4	;volatile
  2452     0410  2C12               	goto	u2341
  2453     0411  2C13               	goto	u2340
  2454     0412                     u2341:
  2455     0412  2C15               	goto	l126
  2456     0413                     u2340:
  2457     0413                     l1805:
  2458                           
  2459                           ;l6.c: 346:         _delay((unsigned long)((5)*(8000000/4000.0)));;l6.c: 347:         if
      +                           (PIR1bits.TXIF)
  2460     0413  3029               	movlw	41
  2461     0414  0099               	movwf	25	;volatile
  2462     0415                     l126:	
  2463                           ;l6.c: 348:         {
  2464                           
  2465                           
  2466                           ;l6.c: 349:             TXREG = 73;
  2467     0415  300D               	movlw	13
  2468     0416  1283               	bcf	3,5	;RP0=0, select bank0
  2469     0417  1303               	bcf	3,6	;RP1=0, select bank0
  2470     0418  00D1               	movwf	??_Menu+1
  2471     0419  30FB               	movlw	251
  2472     041A  00D0               	movwf	??_Menu
  2473     041B                     u3187:
  2474     041B  0BD0               	decfsz	??_Menu,f
  2475     041C  2C1B               	goto	u3187
  2476     041D  0BD1               	decfsz	??_Menu+1,f
  2477     041E  2C1B               	goto	u3187
  2478     041F                     l1807:
  2479                           
  2480                           ;l6.c: 350:         }
  2481     041F  1283               	bcf	3,5	;RP0=0, select bank0
  2482     0420  1303               	bcf	3,6	;RP1=0, select bank0
  2483     0421  1E0C               	btfss	12,4	;volatile
  2484     0422  2C24               	goto	u2351
  2485     0423  2C25               	goto	u2350
  2486     0424                     u2351:
  2487     0424  2C27               	goto	l127
  2488     0425                     u2350:
  2489     0425                     l1809:
  2490                           
  2491                           ;l6.c: 351:         _delay((unsigned long)((5)*(8000000/4000.0)));;l6.c: 352:         if
      +                           (PIR1bits.TXIF)
  2492     0425  3020               	movlw	32
  2493     0426  0099               	movwf	25	;volatile
  2494     0427                     l127:	
  2495                           ;l6.c: 353:         {
  2496                           
  2497                           
  2498                           ;l6.c: 354:             TXREG = 65;
  2499     0427  300D               	movlw	13
  2500     0428  1283               	bcf	3,5	;RP0=0, select bank0
  2501     0429  1303               	bcf	3,6	;RP1=0, select bank0
  2502     042A  00D1               	movwf	??_Menu+1
  2503     042B  30FB               	movlw	251
  2504     042C  00D0               	movwf	??_Menu
  2505     042D                     u3197:
  2506     042D  0BD0               	decfsz	??_Menu,f
  2507     042E  2C2D               	goto	u3197
  2508     042F  0BD1               	decfsz	??_Menu+1,f
  2509     0430  2C2D               	goto	u3197
  2510     0431                     l1811:
  2511                           
  2512                           ;l6.c: 355:         }
  2513     0431  1283               	bcf	3,5	;RP0=0, select bank0
  2514     0432  1303               	bcf	3,6	;RP1=0, select bank0
  2515     0433  1E0C               	btfss	12,4	;volatile
  2516     0434  2C36               	goto	u2361
  2517     0435  2C37               	goto	u2360
  2518     0436                     u2361:
  2519     0436  2C39               	goto	l128
  2520     0437                     u2360:
  2521     0437                     l1813:
  2522                           
  2523                           ;l6.c: 356:         _delay((unsigned long)((5)*(8000000/4000.0)));;l6.c: 357:         if
      +                           (PIR1bits.TXIF)
  2524     0437  3045               	movlw	69
  2525     0438  0099               	movwf	25	;volatile
  2526     0439                     l128:	
  2527                           ;l6.c: 358:         {
  2528                           
  2529                           
  2530                           ;l6.c: 359:             TXREG = 82;
  2531     0439  300D               	movlw	13
  2532     043A  1283               	bcf	3,5	;RP0=0, select bank0
  2533     043B  1303               	bcf	3,6	;RP1=0, select bank0
  2534     043C  00D1               	movwf	??_Menu+1
  2535     043D  30FB               	movlw	251
  2536     043E  00D0               	movwf	??_Menu
  2537     043F                     u3207:
  2538     043F  0BD0               	decfsz	??_Menu,f
  2539     0440  2C3F               	goto	u3207
  2540     0441  0BD1               	decfsz	??_Menu+1,f
  2541     0442  2C3F               	goto	u3207
  2542     0443                     l1815:
  2543                           
  2544                           ;l6.c: 360:         }
  2545     0443  1283               	bcf	3,5	;RP0=0, select bank0
  2546     0444  1303               	bcf	3,6	;RP1=0, select bank0
  2547     0445  1E0C               	btfss	12,4	;volatile
  2548     0446  2C48               	goto	u2371
  2549     0447  2C49               	goto	u2370
  2550     0448                     u2371:
  2551     0448  2C4B               	goto	l129
  2552     0449                     u2370:
  2553     0449                     l1817:
  2554                           
  2555                           ;l6.c: 361:         _delay((unsigned long)((5)*(8000000/4000.0)));;l6.c: 362:         if
      +                           (PIR1bits.TXIF)
  2556     0449  304E               	movlw	78
  2557     044A  0099               	movwf	25	;volatile
  2558     044B                     l129:	
  2559                           ;l6.c: 363:         {
  2560                           
  2561                           
  2562                           ;l6.c: 364:             TXREG = 32;
  2563     044B  300D               	movlw	13
  2564     044C  1283               	bcf	3,5	;RP0=0, select bank0
  2565     044D  1303               	bcf	3,6	;RP1=0, select bank0
  2566     044E  00D1               	movwf	??_Menu+1
  2567     044F  30FB               	movlw	251
  2568     0450  00D0               	movwf	??_Menu
  2569     0451                     u3217:
  2570     0451  0BD0               	decfsz	??_Menu,f
  2571     0452  2C51               	goto	u3217
  2572     0453  0BD1               	decfsz	??_Menu+1,f
  2573     0454  2C51               	goto	u3217
  2574     0455                     l1819:
  2575                           
  2576                           ;l6.c: 365:         }
  2577     0455  1283               	bcf	3,5	;RP0=0, select bank0
  2578     0456  1303               	bcf	3,6	;RP1=0, select bank0
  2579     0457  1E0C               	btfss	12,4	;volatile
  2580     0458  2C5A               	goto	u2381
  2581     0459  2C5B               	goto	u2380
  2582     045A                     u2381:
  2583     045A  2C5D               	goto	l130
  2584     045B                     u2380:
  2585     045B                     l1821:
  2586                           
  2587                           ;l6.c: 366:         _delay((unsigned long)((5)*(8000000/4000.0)));;l6.c: 367:         if
      +                           (PIR1bits.TXIF)
  2588     045B  3056               	movlw	86
  2589     045C  0099               	movwf	25	;volatile
  2590     045D                     l130:	
  2591                           ;l6.c: 368:         {
  2592                           
  2593                           
  2594                           ;l6.c: 369:             TXREG = 65;
  2595     045D  300D               	movlw	13
  2596     045E  1283               	bcf	3,5	;RP0=0, select bank0
  2597     045F  1303               	bcf	3,6	;RP1=0, select bank0
  2598     0460  00D1               	movwf	??_Menu+1
  2599     0461  30FB               	movlw	251
  2600     0462  00D0               	movwf	??_Menu
  2601     0463                     u3227:
  2602     0463  0BD0               	decfsz	??_Menu,f
  2603     0464  2C63               	goto	u3227
  2604     0465  0BD1               	decfsz	??_Menu+1,f
  2605     0466  2C63               	goto	u3227
  2606     0467                     l1823:
  2607                           
  2608                           ;l6.c: 370:         }
  2609     0467  1283               	bcf	3,5	;RP0=0, select bank0
  2610     0468  1303               	bcf	3,6	;RP1=0, select bank0
  2611     0469  1E0C               	btfss	12,4	;volatile
  2612     046A  2C6C               	goto	u2391
  2613     046B  2C6D               	goto	u2390
  2614     046C                     u2391:
  2615     046C  2C6F               	goto	l131
  2616     046D                     u2390:
  2617     046D                     l1825:
  2618                           
  2619                           ;l6.c: 371:         _delay((unsigned long)((5)*(8000000/4000.0)));;l6.c: 372:         if
      +                           (PIR1bits.TXIF)
  2620     046D  3049               	movlw	73
  2621     046E  0099               	movwf	25	;volatile
  2622     046F                     l131:	
  2623                           ;l6.c: 373:         {
  2624                           
  2625                           
  2626                           ;l6.c: 374:             TXREG = 83;
  2627     046F  300D               	movlw	13
  2628     0470  1283               	bcf	3,5	;RP0=0, select bank0
  2629     0471  1303               	bcf	3,6	;RP1=0, select bank0
  2630     0472  00D1               	movwf	??_Menu+1
  2631     0473  30FB               	movlw	251
  2632     0474  00D0               	movwf	??_Menu
  2633     0475                     u3237:
  2634     0475  0BD0               	decfsz	??_Menu,f
  2635     0476  2C75               	goto	u3237
  2636     0477  0BD1               	decfsz	??_Menu+1,f
  2637     0478  2C75               	goto	u3237
  2638     0479                     l1827:
  2639                           
  2640                           ;l6.c: 375:         }
  2641     0479  1283               	bcf	3,5	;RP0=0, select bank0
  2642     047A  1303               	bcf	3,6	;RP1=0, select bank0
  2643     047B  1E0C               	btfss	12,4	;volatile
  2644     047C  2C7E               	goto	u2401
  2645     047D  2C7F               	goto	u2400
  2646     047E                     u2401:
  2647     047E  2C81               	goto	l132
  2648     047F                     u2400:
  2649     047F                     l1829:
  2650                           
  2651                           ;l6.c: 376: ;l6.c: 377:         _delay((unsigned long)((5)*(8000000/4000.0)));
  2652     047F  3041               	movlw	65
  2653     0480  0099               	movwf	25	;volatile
  2654     0481                     l132:	
  2655                           ;l6.c: 378:         if (PIR1bits.TXIF)
  2656                           
  2657                           
  2658                           ;l6.c: 379:         {
  2659     0481  300D               	movlw	13
  2660     0482  1283               	bcf	3,5	;RP0=0, select bank0
  2661     0483  1303               	bcf	3,6	;RP1=0, select bank0
  2662     0484  00D1               	movwf	??_Menu+1
  2663     0485  30FB               	movlw	251
  2664     0486  00D0               	movwf	??_Menu
  2665     0487                     u3247:
  2666     0487  0BD0               	decfsz	??_Menu,f
  2667     0488  2C87               	goto	u3247
  2668     0489  0BD1               	decfsz	??_Menu+1,f
  2669     048A  2C87               	goto	u3247
  2670     048B                     l1831:
  2671                           
  2672                           ;l6.c: 380:             TXREG = 67;
  2673     048B  1283               	bcf	3,5	;RP0=0, select bank0
  2674     048C  1303               	bcf	3,6	;RP1=0, select bank0
  2675     048D  1E0C               	btfss	12,4	;volatile
  2676     048E  2C90               	goto	u2411
  2677     048F  2C91               	goto	u2410
  2678     0490                     u2411:
  2679     0490  2C93               	goto	l133
  2680     0491                     u2410:
  2681     0491                     l1833:
  2682                           
  2683                           ;l6.c: 381:         };l6.c: 382: 
  2684     0491  3052               	movlw	82
  2685     0492  0099               	movwf	25	;volatile
  2686     0493                     l133:	
  2687                           ;l6.c: 383:         _delay((unsigned long)((5)*(8000000/4000.0)));
  2688                           
  2689                           
  2690                           ;l6.c: 384:         if (PIR1bits.TXIF)
  2691     0493  300D               	movlw	13
  2692     0494  1283               	bcf	3,5	;RP0=0, select bank0
  2693     0495  1303               	bcf	3,6	;RP1=0, select bank0
  2694     0496  00D1               	movwf	??_Menu+1
  2695     0497  30FB               	movlw	251
  2696     0498  00D0               	movwf	??_Menu
  2697     0499                     u3257:
  2698     0499  0BD0               	decfsz	??_Menu,f
  2699     049A  2C99               	goto	u3257
  2700     049B  0BD1               	decfsz	??_Menu+1,f
  2701     049C  2C99               	goto	u3257
  2702     049D                     l1835:
  2703                           
  2704                           ;l6.c: 385:         {
  2705     049D  1283               	bcf	3,5	;RP0=0, select bank0
  2706     049E  1303               	bcf	3,6	;RP1=0, select bank0
  2707     049F  1E0C               	btfss	12,4	;volatile
  2708     04A0  2CA2               	goto	u2421
  2709     04A1  2CA3               	goto	u2420
  2710     04A2                     u2421:
  2711     04A2  2CA5               	goto	l134
  2712     04A3                     u2420:
  2713     04A3                     l1837:
  2714                           
  2715                           ;l6.c: 386:             TXREG = 73;;l6.c: 387:         }
  2716     04A3  3020               	movlw	32
  2717     04A4  0099               	movwf	25	;volatile
  2718     04A5                     l134:	
  2719                           ;l6.c: 388:         _delay((unsigned long)((5)*(8000000/4000.0)));
  2720                           
  2721                           
  2722                           ;l6.c: 389:         if (PIR1bits.TXIF)
  2723     04A5  300D               	movlw	13
  2724     04A6  1283               	bcf	3,5	;RP0=0, select bank0
  2725     04A7  1303               	bcf	3,6	;RP1=0, select bank0
  2726     04A8  00D1               	movwf	??_Menu+1
  2727     04A9  30FB               	movlw	251
  2728     04AA  00D0               	movwf	??_Menu
  2729     04AB                     u3267:
  2730     04AB  0BD0               	decfsz	??_Menu,f
  2731     04AC  2CAB               	goto	u3267
  2732     04AD  0BD1               	decfsz	??_Menu+1,f
  2733     04AE  2CAB               	goto	u3267
  2734     04AF                     l1839:
  2735                           
  2736                           ;l6.c: 390:         {
  2737     04AF  1283               	bcf	3,5	;RP0=0, select bank0
  2738     04B0  1303               	bcf	3,6	;RP1=0, select bank0
  2739     04B1  1E0C               	btfss	12,4	;volatile
  2740     04B2  2CB4               	goto	u2431
  2741     04B3  2CB5               	goto	u2430
  2742     04B4                     u2431:
  2743     04B4  2CB7               	goto	l135
  2744     04B5                     u2430:
  2745     04B5                     l1841:
  2746                           
  2747                           ;l6.c: 391:             TXREG = 73;;l6.c: 392:         }
  2748     04B5  3041               	movlw	65
  2749     04B6  0099               	movwf	25	;volatile
  2750     04B7                     l135:	
  2751                           ;l6.c: 393:         _delay((unsigned long)((5)*(8000000/4000.0)));
  2752                           
  2753                           
  2754                           ;l6.c: 394:         if (PIR1bits.TXIF)
  2755     04B7  300D               	movlw	13
  2756     04B8  1283               	bcf	3,5	;RP0=0, select bank0
  2757     04B9  1303               	bcf	3,6	;RP1=0, select bank0
  2758     04BA  00D1               	movwf	??_Menu+1
  2759     04BB  30FB               	movlw	251
  2760     04BC  00D0               	movwf	??_Menu
  2761     04BD                     u3277:
  2762     04BD  0BD0               	decfsz	??_Menu,f
  2763     04BE  2CBD               	goto	u3277
  2764     04BF  0BD1               	decfsz	??_Menu+1,f
  2765     04C0  2CBD               	goto	u3277
  2766     04C1                     l1843:
  2767                           
  2768                           ;l6.c: 395:         {
  2769     04C1  1283               	bcf	3,5	;RP0=0, select bank0
  2770     04C2  1303               	bcf	3,6	;RP1=0, select bank0
  2771     04C3  1E0C               	btfss	12,4	;volatile
  2772     04C4  2CC6               	goto	u2441
  2773     04C5  2CC7               	goto	u2440
  2774     04C6                     u2441:
  2775     04C6  2CC9               	goto	l136
  2776     04C7                     u2440:
  2777     04C7                     l1845:
  2778                           
  2779                           ;l6.c: 396:             TXREG = 13;;l6.c: 397:         }
  2780     04C7  3053               	movlw	83
  2781     04C8  0099               	movwf	25	;volatile
  2782     04C9                     l136:	
  2783                           ;l6.c: 398:         _delay((unsigned long)((5)*(8000000/4000.0)));
  2784                           
  2785                           
  2786                           ;l6.c: 400:         {
  2787     04C9  300D               	movlw	13
  2788     04CA  1283               	bcf	3,5	;RP0=0, select bank0
  2789     04CB  1303               	bcf	3,6	;RP1=0, select bank0
  2790     04CC  00D1               	movwf	??_Menu+1
  2791     04CD  30FB               	movlw	251
  2792     04CE  00D0               	movwf	??_Menu
  2793     04CF                     u3287:
  2794     04CF  0BD0               	decfsz	??_Menu,f
  2795     04D0  2CCF               	goto	u3287
  2796     04D1  0BD1               	decfsz	??_Menu+1,f
  2797     04D2  2CCF               	goto	u3287
  2798     04D3                     l1847:
  2799                           
  2800                           ;l6.c: 401:             TXREG = 10;
  2801     04D3  1283               	bcf	3,5	;RP0=0, select bank0
  2802     04D4  1303               	bcf	3,6	;RP1=0, select bank0
  2803     04D5  1E0C               	btfss	12,4	;volatile
  2804     04D6  2CD8               	goto	u2451
  2805     04D7  2CD9               	goto	u2450
  2806     04D8                     u2451:
  2807     04D8  2CDB               	goto	l137
  2808     04D9                     u2450:
  2809     04D9                     l1849:
  2810                           
  2811                           ;l6.c: 402:         };l6.c: 403: 
  2812     04D9  3043               	movlw	67
  2813     04DA  0099               	movwf	25	;volatile
  2814     04DB                     l137:	
  2815                           ;l6.c: 404:         _delay((unsigned long)((5)*(8000000/4000.0)));
  2816                           
  2817                           
  2818                           ;l6.c: 406:         {
  2819     04DB  300D               	movlw	13
  2820     04DC  1283               	bcf	3,5	;RP0=0, select bank0
  2821     04DD  1303               	bcf	3,6	;RP1=0, select bank0
  2822     04DE  00D1               	movwf	??_Menu+1
  2823     04DF  30FB               	movlw	251
  2824     04E0  00D0               	movwf	??_Menu
  2825     04E1                     u3297:
  2826     04E1  0BD0               	decfsz	??_Menu,f
  2827     04E2  2CE1               	goto	u3297
  2828     04E3  0BD1               	decfsz	??_Menu+1,f
  2829     04E4  2CE1               	goto	u3297
  2830     04E5                     l1851:
  2831                           
  2832                           ;l6.c: 407:             TXREG = 40;
  2833     04E5  1283               	bcf	3,5	;RP0=0, select bank0
  2834     04E6  1303               	bcf	3,6	;RP1=0, select bank0
  2835     04E7  1E0C               	btfss	12,4	;volatile
  2836     04E8  2CEA               	goto	u2461
  2837     04E9  2CEB               	goto	u2460
  2838     04EA                     u2461:
  2839     04EA  2CED               	goto	l138
  2840     04EB                     u2460:
  2841     04EB                     l1853:
  2842                           
  2843                           ;l6.c: 408:         };l6.c: 409:         _delay((unsigned long)((5)*(8000000/4000.0)));
  2844     04EB  3049               	movlw	73
  2845     04EC  0099               	movwf	25	;volatile
  2846     04ED                     l138:	
  2847                           ;l6.c: 410:         if (PIR1bits.TXIF)
  2848                           
  2849                           
  2850                           ;l6.c: 411:         {
  2851     04ED  300D               	movlw	13
  2852     04EE  1283               	bcf	3,5	;RP0=0, select bank0
  2853     04EF  1303               	bcf	3,6	;RP1=0, select bank0
  2854     04F0  00D1               	movwf	??_Menu+1
  2855     04F1  30FB               	movlw	251
  2856     04F2  00D0               	movwf	??_Menu
  2857     04F3                     u3307:
  2858     04F3  0BD0               	decfsz	??_Menu,f
  2859     04F4  2CF3               	goto	u3307
  2860     04F5  0BD1               	decfsz	??_Menu+1,f
  2861     04F6  2CF3               	goto	u3307
  2862     04F7                     l1855:
  2863                           
  2864                           ;l6.c: 412:             TXREG = 51;
  2865     04F7  1283               	bcf	3,5	;RP0=0, select bank0
  2866     04F8  1303               	bcf	3,6	;RP1=0, select bank0
  2867     04F9  1E0C               	btfss	12,4	;volatile
  2868     04FA  2CFC               	goto	u2471
  2869     04FB  2CFD               	goto	u2470
  2870     04FC                     u2471:
  2871     04FC  2CFF               	goto	l139
  2872     04FD                     u2470:
  2873     04FD                     l1857:
  2874                           
  2875                           ;l6.c: 413:         };l6.c: 414:         _delay((unsigned long)((5)*(8000000/4000.0)));
  2876     04FD  3049               	movlw	73
  2877     04FE  0099               	movwf	25	;volatile
  2878     04FF                     l139:	
  2879                           ;l6.c: 415:         if (PIR1bits.TXIF)
  2880                           
  2881                           
  2882                           ;l6.c: 416:         {
  2883     04FF  300D               	movlw	13
  2884     0500  1283               	bcf	3,5	;RP0=0, select bank0
  2885     0501  1303               	bcf	3,6	;RP1=0, select bank0
  2886     0502  00D1               	movwf	??_Menu+1
  2887     0503  30FB               	movlw	251
  2888     0504  00D0               	movwf	??_Menu
  2889     0505                     u3317:
  2890     0505  0BD0               	decfsz	??_Menu,f
  2891     0506  2D05               	goto	u3317
  2892     0507  0BD1               	decfsz	??_Menu+1,f
  2893     0508  2D05               	goto	u3317
  2894     0509                     l1859:
  2895                           
  2896                           ;l6.c: 417:             TXREG = 41;
  2897     0509  1283               	bcf	3,5	;RP0=0, select bank0
  2898     050A  1303               	bcf	3,6	;RP1=0, select bank0
  2899     050B  1E0C               	btfss	12,4	;volatile
  2900     050C  2D0E               	goto	u2481
  2901     050D  2D0F               	goto	u2480
  2902     050E                     u2481:
  2903     050E  2D11               	goto	l140
  2904     050F                     u2480:
  2905     050F                     l1861:
  2906                           
  2907                           ;l6.c: 418:         };l6.c: 419: 
  2908     050F  300D               	movlw	13
  2909     0510  0099               	movwf	25	;volatile
  2910     0511                     l140:	
  2911                           ;l6.c: 420:          _delay((unsigned long)((5)*(8000000/4000.0)));
  2912                           
  2913                           
  2914                           ;l6.c: 421:         if (PIR1bits.TXIF)
  2915     0511  300D               	movlw	13
  2916     0512  1283               	bcf	3,5	;RP0=0, select bank0
  2917     0513  1303               	bcf	3,6	;RP1=0, select bank0
  2918     0514  00D1               	movwf	??_Menu+1
  2919     0515  30FB               	movlw	251
  2920     0516  00D0               	movwf	??_Menu
  2921     0517                     u3327:
  2922     0517  0BD0               	decfsz	??_Menu,f
  2923     0518  2D17               	goto	u3327
  2924     0519  0BD1               	decfsz	??_Menu+1,f
  2925     051A  2D17               	goto	u3327
  2926     051B                     l1863:
  2927                           
  2928                           ;l6.c: 422:         {
  2929     051B  1283               	bcf	3,5	;RP0=0, select bank0
  2930     051C  1303               	bcf	3,6	;RP1=0, select bank0
  2931     051D  1E0C               	btfss	12,4	;volatile
  2932     051E  2D20               	goto	u2491
  2933     051F  2D21               	goto	u2490
  2934     0520                     u2491:
  2935     0520  2D23               	goto	l141
  2936     0521                     u2490:
  2937     0521                     l1865:
  2938                           
  2939                           ;l6.c: 423:             TXREG = 32;;l6.c: 424:         }
  2940     0521  300A               	movlw	10
  2941     0522  0099               	movwf	25	;volatile
  2942     0523                     l141:	
  2943                           ;l6.c: 425:         _delay((unsigned long)((5)*(8000000/4000.0)));
  2944                           
  2945                           
  2946                           ;l6.c: 427:         {
  2947     0523  300D               	movlw	13
  2948     0524  1283               	bcf	3,5	;RP0=0, select bank0
  2949     0525  1303               	bcf	3,6	;RP1=0, select bank0
  2950     0526  00D1               	movwf	??_Menu+1
  2951     0527  30FB               	movlw	251
  2952     0528  00D0               	movwf	??_Menu
  2953     0529                     u3337:
  2954     0529  0BD0               	decfsz	??_Menu,f
  2955     052A  2D29               	goto	u3337
  2956     052B  0BD1               	decfsz	??_Menu+1,f
  2957     052C  2D29               	goto	u3337
  2958     052D                     l1867:
  2959                           
  2960                           ;l6.c: 428:             TXREG = 67;
  2961     052D  1283               	bcf	3,5	;RP0=0, select bank0
  2962     052E  1303               	bcf	3,6	;RP1=0, select bank0
  2963     052F  1E0C               	btfss	12,4	;volatile
  2964     0530  2D32               	goto	u2501
  2965     0531  2D33               	goto	u2500
  2966     0532                     u2501:
  2967     0532  2D35               	goto	l142
  2968     0533                     u2500:
  2969     0533                     l1869:
  2970                           
  2971                           ;l6.c: 429:         };l6.c: 430:         _delay((unsigned long)((5)*(8000000/4000.0)));
  2972     0533  3028               	movlw	40
  2973     0534  0099               	movwf	25	;volatile
  2974     0535                     l142:	
  2975                           ;l6.c: 431:         if (PIR1bits.TXIF)
  2976                           
  2977                           
  2978                           ;l6.c: 432:         {
  2979     0535  300D               	movlw	13
  2980     0536  1283               	bcf	3,5	;RP0=0, select bank0
  2981     0537  1303               	bcf	3,6	;RP1=0, select bank0
  2982     0538  00D1               	movwf	??_Menu+1
  2983     0539  30FB               	movlw	251
  2984     053A  00D0               	movwf	??_Menu
  2985     053B                     u3347:
  2986     053B  0BD0               	decfsz	??_Menu,f
  2987     053C  2D3B               	goto	u3347
  2988     053D  0BD1               	decfsz	??_Menu+1,f
  2989     053E  2D3B               	goto	u3347
  2990     053F                     l1871:
  2991                           
  2992                           ;l6.c: 433:             TXREG = 65;
  2993     053F  1283               	bcf	3,5	;RP0=0, select bank0
  2994     0540  1303               	bcf	3,6	;RP1=0, select bank0
  2995     0541  1E0C               	btfss	12,4	;volatile
  2996     0542  2D44               	goto	u2511
  2997     0543  2D45               	goto	u2510
  2998     0544                     u2511:
  2999     0544  2D47               	goto	l143
  3000     0545                     u2510:
  3001     0545                     l1873:
  3002                           
  3003                           ;l6.c: 434:         };l6.c: 435: 
  3004     0545  3033               	movlw	51
  3005     0546  0099               	movwf	25	;volatile
  3006     0547                     l143:	
  3007                           ;l6.c: 436:         _delay((unsigned long)((5)*(8000000/4000.0)));
  3008                           
  3009                           
  3010                           ;l6.c: 437:         if (PIR1bits.TXIF)
  3011     0547  300D               	movlw	13
  3012     0548  1283               	bcf	3,5	;RP0=0, select bank0
  3013     0549  1303               	bcf	3,6	;RP1=0, select bank0
  3014     054A  00D1               	movwf	??_Menu+1
  3015     054B  30FB               	movlw	251
  3016     054C  00D0               	movwf	??_Menu
  3017     054D                     u3357:
  3018     054D  0BD0               	decfsz	??_Menu,f
  3019     054E  2D4D               	goto	u3357
  3020     054F  0BD1               	decfsz	??_Menu+1,f
  3021     0550  2D4D               	goto	u3357
  3022     0551                     l1875:
  3023                           
  3024                           ;l6.c: 438:         {
  3025     0551  1283               	bcf	3,5	;RP0=0, select bank0
  3026     0552  1303               	bcf	3,6	;RP1=0, select bank0
  3027     0553  1E0C               	btfss	12,4	;volatile
  3028     0554  2D56               	goto	u2521
  3029     0555  2D57               	goto	u2520
  3030     0556                     u2521:
  3031     0556  2D59               	goto	l144
  3032     0557                     u2520:
  3033     0557                     l1877:
  3034                           
  3035                           ;l6.c: 439:             TXREG = 68;;l6.c: 440:         }
  3036     0557  3029               	movlw	41
  3037     0558  0099               	movwf	25	;volatile
  3038     0559                     l144:	
  3039                           ;l6.c: 441:         _delay((unsigned long)((5)*(8000000/4000.0)));
  3040                           
  3041                           
  3042                           ;l6.c: 443:         {
  3043     0559  300D               	movlw	13
  3044     055A  1283               	bcf	3,5	;RP0=0, select bank0
  3045     055B  1303               	bcf	3,6	;RP1=0, select bank0
  3046     055C  00D1               	movwf	??_Menu+1
  3047     055D  30FB               	movlw	251
  3048     055E  00D0               	movwf	??_Menu
  3049     055F                     u3367:
  3050     055F  0BD0               	decfsz	??_Menu,f
  3051     0560  2D5F               	goto	u3367
  3052     0561  0BD1               	decfsz	??_Menu+1,f
  3053     0562  2D5F               	goto	u3367
  3054     0563                     l1879:
  3055                           
  3056                           ;l6.c: 444:             TXREG = 69;
  3057     0563  1283               	bcf	3,5	;RP0=0, select bank0
  3058     0564  1303               	bcf	3,6	;RP1=0, select bank0
  3059     0565  1E0C               	btfss	12,4	;volatile
  3060     0566  2D68               	goto	u2531
  3061     0567  2D69               	goto	u2530
  3062     0568                     u2531:
  3063     0568  2D6B               	goto	l145
  3064     0569                     u2530:
  3065     0569                     l1881:
  3066                           
  3067                           ;l6.c: 445:         };l6.c: 446:         _delay((unsigned long)((5)*(8000000/4000.0)));
  3068     0569  3020               	movlw	32
  3069     056A  0099               	movwf	25	;volatile
  3070     056B                     l145:	
  3071                           ;l6.c: 447:         if (PIR1bits.TXIF)
  3072                           
  3073                           
  3074                           ;l6.c: 448:         {
  3075     056B  300D               	movlw	13
  3076     056C  1283               	bcf	3,5	;RP0=0, select bank0
  3077     056D  1303               	bcf	3,6	;RP1=0, select bank0
  3078     056E  00D1               	movwf	??_Menu+1
  3079     056F  30FB               	movlw	251
  3080     0570  00D0               	movwf	??_Menu
  3081     0571                     u3377:
  3082     0571  0BD0               	decfsz	??_Menu,f
  3083     0572  2D71               	goto	u3377
  3084     0573  0BD1               	decfsz	??_Menu+1,f
  3085     0574  2D71               	goto	u3377
  3086     0575                     l1883:
  3087                           
  3088                           ;l6.c: 449:             TXREG = 78;
  3089     0575  1283               	bcf	3,5	;RP0=0, select bank0
  3090     0576  1303               	bcf	3,6	;RP1=0, select bank0
  3091     0577  1E0C               	btfss	12,4	;volatile
  3092     0578  2D7A               	goto	u2541
  3093     0579  2D7B               	goto	u2540
  3094     057A                     u2541:
  3095     057A  2D7D               	goto	l146
  3096     057B                     u2540:
  3097     057B                     l1885:
  3098                           
  3099                           ;l6.c: 450:         };l6.c: 451:         _delay((unsigned long)((5)*(8000000/4000.0)));
  3100     057B  3043               	movlw	67
  3101     057C  0099               	movwf	25	;volatile
  3102     057D                     l146:	
  3103                           ;l6.c: 452:         if (PIR1bits.TXIF)
  3104                           
  3105                           
  3106                           ;l6.c: 453:         {
  3107     057D  300D               	movlw	13
  3108     057E  1283               	bcf	3,5	;RP0=0, select bank0
  3109     057F  1303               	bcf	3,6	;RP1=0, select bank0
  3110     0580  00D1               	movwf	??_Menu+1
  3111     0581  30FB               	movlw	251
  3112     0582  00D0               	movwf	??_Menu
  3113     0583                     u3387:
  3114     0583  0BD0               	decfsz	??_Menu,f
  3115     0584  2D83               	goto	u3387
  3116     0585  0BD1               	decfsz	??_Menu+1,f
  3117     0586  2D83               	goto	u3387
  3118     0587                     l1887:
  3119                           
  3120                           ;l6.c: 454:             TXREG = 65;
  3121     0587  1283               	bcf	3,5	;RP0=0, select bank0
  3122     0588  1303               	bcf	3,6	;RP1=0, select bank0
  3123     0589  1E0C               	btfss	12,4	;volatile
  3124     058A  2D8C               	goto	u2551
  3125     058B  2D8D               	goto	u2550
  3126     058C                     u2551:
  3127     058C  2D8F               	goto	l147
  3128     058D                     u2550:
  3129     058D                     l1889:
  3130                           
  3131                           ;l6.c: 455:         };l6.c: 456: 
  3132     058D  3041               	movlw	65
  3133     058E  0099               	movwf	25	;volatile
  3134     058F                     l147:	
  3135                           ;l6.c: 457:         _delay((unsigned long)((5)*(8000000/4000.0)));
  3136                           
  3137                           
  3138                           ;l6.c: 459:         {
  3139     058F  300D               	movlw	13
  3140     0590  1283               	bcf	3,5	;RP0=0, select bank0
  3141     0591  1303               	bcf	3,6	;RP1=0, select bank0
  3142     0592  00D1               	movwf	??_Menu+1
  3143     0593  30FB               	movlw	251
  3144     0594  00D0               	movwf	??_Menu
  3145     0595                     u3397:
  3146     0595  0BD0               	decfsz	??_Menu,f
  3147     0596  2D95               	goto	u3397
  3148     0597  0BD1               	decfsz	??_Menu+1,f
  3149     0598  2D95               	goto	u3397
  3150     0599                     l1891:
  3151                           
  3152                           ;l6.c: 460:             TXREG = 13;
  3153     0599  1283               	bcf	3,5	;RP0=0, select bank0
  3154     059A  1303               	bcf	3,6	;RP1=0, select bank0
  3155     059B  1E0C               	btfss	12,4	;volatile
  3156     059C  2D9E               	goto	u2561
  3157     059D  2D9F               	goto	u2560
  3158     059E                     u2561:
  3159     059E  2DA1               	goto	l148
  3160     059F                     u2560:
  3161     059F                     l1893:
  3162                           
  3163                           ;l6.c: 461:         };l6.c: 462: 
  3164     059F  3044               	movlw	68
  3165     05A0  0099               	movwf	25	;volatile
  3166     05A1                     l148:	
  3167                           ;l6.c: 463: }
  3168                           
  3169                           
  3170                           ;l6.c: 464: 
  3171     05A1  300D               	movlw	13
  3172     05A2  1283               	bcf	3,5	;RP0=0, select bank0
  3173     05A3  1303               	bcf	3,6	;RP1=0, select bank0
  3174     05A4  00D1               	movwf	??_Menu+1
  3175     05A5  30FB               	movlw	251
  3176     05A6  00D0               	movwf	??_Menu
  3177     05A7                     u3407:
  3178     05A7  0BD0               	decfsz	??_Menu,f
  3179     05A8  2DA7               	goto	u3407
  3180     05A9  0BD1               	decfsz	??_Menu+1,f
  3181     05AA  2DA7               	goto	u3407
  3182     05AB                     l1895:
  3183                           
  3184                           ;l6.c: 465: 
  3185     05AB  1283               	bcf	3,5	;RP0=0, select bank0
  3186     05AC  1303               	bcf	3,6	;RP1=0, select bank0
  3187     05AD  1E0C               	btfss	12,4	;volatile
  3188     05AE  2DB0               	goto	u2571
  3189     05AF  2DB1               	goto	u2570
  3190     05B0                     u2571:
  3191     05B0  2DB3               	goto	l149
  3192     05B1                     u2570:
  3193     05B1                     l1897:
  3194                           
  3195                           ;l6.c: 466: void __attribute__((picinterrupt(("")))) isr(void);l6.c: 467: {
  3196     05B1  3045               	movlw	69
  3197     05B2  0099               	movwf	25	;volatile
  3198     05B3                     l149:	
  3199                           ;l6.c: 468:     if (PIR1bits.RCIF)
  3200                           
  3201                           
  3202                           ;l6.c: 469:     {
  3203     05B3  300D               	movlw	13
  3204     05B4  1283               	bcf	3,5	;RP0=0, select bank0
  3205     05B5  1303               	bcf	3,6	;RP1=0, select bank0
  3206     05B6  00D1               	movwf	??_Menu+1
  3207     05B7  30FB               	movlw	251
  3208     05B8  00D0               	movwf	??_Menu
  3209     05B9                     u3417:
  3210     05B9  0BD0               	decfsz	??_Menu,f
  3211     05BA  2DB9               	goto	u3417
  3212     05BB  0BD1               	decfsz	??_Menu+1,f
  3213     05BC  2DB9               	goto	u3417
  3214     05BD                     l1899:
  3215                           
  3216                           ;l6.c: 470: 
  3217     05BD  1283               	bcf	3,5	;RP0=0, select bank0
  3218     05BE  1303               	bcf	3,6	;RP1=0, select bank0
  3219     05BF  1E0C               	btfss	12,4	;volatile
  3220     05C0  2DC2               	goto	u2581
  3221     05C1  2DC3               	goto	u2580
  3222     05C2                     u2581:
  3223     05C2  2DC5               	goto	l150
  3224     05C3                     u2580:
  3225     05C3                     l1901:
  3226                           
  3227                           ;l6.c: 471:         switch (RCREG);l6.c: 472:         {
  3228     05C3  304E               	movlw	78
  3229     05C4  0099               	movwf	25	;volatile
  3230     05C5                     l150:	
  3231                           ;l6.c: 473:             case 49:
  3232                           
  3233                           
  3234                           ;l6.c: 474:                 ADCON0bits.GO = 1;
  3235     05C5  300D               	movlw	13
  3236     05C6  1283               	bcf	3,5	;RP0=0, select bank0
  3237     05C7  1303               	bcf	3,6	;RP1=0, select bank0
  3238     05C8  00D1               	movwf	??_Menu+1
  3239     05C9  30FB               	movlw	251
  3240     05CA  00D0               	movwf	??_Menu
  3241     05CB                     u3427:
  3242     05CB  0BD0               	decfsz	??_Menu,f
  3243     05CC  2DCB               	goto	u3427
  3244     05CD  0BD1               	decfsz	??_Menu+1,f
  3245     05CE  2DCB               	goto	u3427
  3246     05CF                     l1903:
  3247                           
  3248                           ;l6.c: 475:                 while(ADCON0bits.GO == 1);
  3249     05CF  1283               	bcf	3,5	;RP0=0, select bank0
  3250     05D0  1303               	bcf	3,6	;RP1=0, select bank0
  3251     05D1  1E0C               	btfss	12,4	;volatile
  3252     05D2  2DD4               	goto	u2591
  3253     05D3  2DD5               	goto	u2590
  3254     05D4                     u2591:
  3255     05D4  2DD7               	goto	l151
  3256     05D5                     u2590:
  3257     05D5                     l1905:
  3258                           
  3259                           ;l6.c: 476:                 ADIF = 0;;l6.c: 477:                 TXREG = ADRESH;
  3260     05D5  3041               	movlw	65
  3261     05D6  0099               	movwf	25	;volatile
  3262     05D7                     l151:	
  3263                           ;l6.c: 478:                 _delay((unsigned long)((10)*(8000000/4000.0)));
  3264                           
  3265                           
  3266                           ;l6.c: 480:                 if (PIR1bits.TXIF)
  3267     05D7  300D               	movlw	13
  3268     05D8  1283               	bcf	3,5	;RP0=0, select bank0
  3269     05D9  1303               	bcf	3,6	;RP1=0, select bank0
  3270     05DA  00D1               	movwf	??_Menu+1
  3271     05DB  30FB               	movlw	251
  3272     05DC  00D0               	movwf	??_Menu
  3273     05DD                     u3437:
  3274     05DD  0BD0               	decfsz	??_Menu,f
  3275     05DE  2DDD               	goto	u3437
  3276     05DF  0BD1               	decfsz	??_Menu+1,f
  3277     05E0  2DDD               	goto	u3437
  3278     05E1                     l1907:
  3279                           
  3280                           ;l6.c: 481:                 {
  3281     05E1  1283               	bcf	3,5	;RP0=0, select bank0
  3282     05E2  1303               	bcf	3,6	;RP1=0, select bank0
  3283     05E3  1E0C               	btfss	12,4	;volatile
  3284     05E4  2DE6               	goto	u2601
  3285     05E5  2DE7               	goto	u2600
  3286     05E6                     u2601:
  3287     05E6  2DE9               	goto	l153
  3288     05E7                     u2600:
  3289     05E7                     l1909:
  3290                           
  3291                           ;l6.c: 482:                     TXREG = 13;;l6.c: 483:                 }
  3292     05E7  300D               	movlw	13
  3293     05E8  0099               	movwf	25	;volatile
  3294     05E9                     l153:
  3295     05E9  0008               	return
  3296     05EA                     __end_of_Menu:
  3297                           
  3298                           	psect	text2
  3299     05EA                     __ptext2:	
  3300 ;; *************** function _isr *****************
  3301 ;; Defined at:
  3302 ;;		line 489 in file "l6.c"
  3303 ;; Parameters:    Size  Location     Type
  3304 ;;		None
  3305 ;; Auto vars:     Size  Location     Type
  3306 ;;		None
  3307 ;; Return value:  Size  Location     Type
  3308 ;;                  1    wreg      void 
  3309 ;; Registers used:
  3310 ;;		wreg, fsr0l, fsr0h, status,2, status,0, pclath, cstack
  3311 ;; Tracked objects:
  3312 ;;		On entry : 0/0
  3313 ;;		On exit  : 0/0
  3314 ;;		Unchanged: 0/0
  3315 ;; Data sizes:     COMMON   BANK0   BANK1   BANK3   BANK2
  3316 ;;      Params:         0       0       0       0       0
  3317 ;;      Locals:         0       0       0       0       0
  3318 ;;      Temps:          5       0       0       0       0
  3319 ;;      Totals:         5       0       0       0       0
  3320 ;;Total ram usage:        5 bytes
  3321 ;; Hardware stack levels used: 1
  3322 ;; Hardware stack levels required when called: 1
  3323 ;; This function calls:
  3324 ;;		i1_Menu
  3325 ;; This function is called by:
  3326 ;;		Interrupt level 1
  3327 ;; This function uses a non-reentrant model
  3328 ;;
  3329                           
  3330     05EA                     _isr:	
  3331                           ;psect for function _isr
  3332                           
  3333     05EA                     i1l1457:
  3334                           
  3335                           ;l6.c: 491:                     {
  3336     05EA  1283               	bcf	3,5	;RP0=0, select bank0
  3337     05EB  1303               	bcf	3,6	;RP1=0, select bank0
  3338     05EC  1E8C               	btfss	12,5	;volatile
  3339     05ED  2DEF               	goto	u170_21
  3340     05EE  2DF0               	goto	u170_20
  3341     05EF                     u170_21:
  3342     05EF  2E56               	goto	i1l172
  3343     05F0                     u170_20:
  3344     05F0  2E46               	goto	i1l1489
  3345     05F1                     i1l160:	
  3346                           ;l6.c: 495:                  };l6.c: 496: 
  3347                           
  3348                           
  3349                           ;l6.c: 497: 
  3350     05F1  149F               	bsf	31,1	;volatile
  3351     05F2                     i1l161:	
  3352                           ;l6.c: 498:                 while (Boo==0);
  3353                           
  3354     05F2  189F               	btfsc	31,1	;volatile
  3355     05F3  2DF5               	goto	u171_21
  3356     05F4  2DF6               	goto	u171_20
  3357     05F5                     u171_21:
  3358     05F5  2DF2               	goto	i1l161
  3359     05F6                     u171_20:
  3360     05F6                     i1l163:
  3361                           
  3362                           ;l6.c: 499:                 _delay((unsigned long)((50)*(8000000/4000.0)));
  3363     05F6  130C               	bcf	12,6	;volatile
  3364     05F7                     i1l1461:
  3365                           
  3366                           ;l6.c: 500:                 if (PIR1bits.TXIF)
  3367     05F7  081E               	movf	30,w	;volatile
  3368     05F8  0099               	movwf	25	;volatile
  3369                           
  3370                           ;l6.c: 501:                 {
  3371     05F9  301A               	movlw	26
  3372     05FA  00F3               	movwf	??_isr+1
  3373     05FB  30F8               	movlw	248
  3374     05FC  00F2               	movwf	??_isr
  3375     05FD                     u344_27:
  3376     05FD  0BF2               	decfsz	??_isr,f
  3377     05FE  2DFD               	goto	u344_27
  3378     05FF  0BF3               	decfsz	??_isr+1,f
  3379     0600  2DFD               	goto	u344_27
  3380     0601  0000               	nop
  3381     0602                     i1l1463:
  3382                           
  3383                           ;l6.c: 503:                 }
  3384     0602  1283               	bcf	3,5	;RP0=0, select bank0
  3385     0603  1303               	bcf	3,6	;RP1=0, select bank0
  3386     0604  1E0C               	btfss	12,4	;volatile
  3387     0605  2E07               	goto	u172_21
  3388     0606  2E08               	goto	u172_20
  3389     0607                     u172_21:
  3390     0607  2E0A               	goto	i1l1467
  3391     0608                     u172_20:
  3392     0608                     i1l1465:
  3393                           
  3394                           ;l6.c: 504:                 _delay((unsigned long)((50)*(8000000/4000.0)));;l6.c: 505:  
      +                                         if (PIR1bits.TXIF)
  3395     0608  300D               	movlw	13
  3396     0609  0099               	movwf	25	;volatile
  3397     060A                     i1l1467:
  3398                           
  3399                           ;l6.c: 508:                 }
  3400     060A  120A  158A  2292  120A  118A  	fcall	i1_Menu
  3401                           
  3402                           ;l6.c: 509:                 Menu();
  3403     060F  2E56               	goto	i1l172
  3404     0610                     i1l167:	
  3405                           ;l6.c: 512:                 }
  3406                           
  3407                           
  3408                           ;l6.c: 513: 
  3409     0610  1E8C               	btfss	12,5	;volatile
  3410     0611  2E13               	goto	u173_21
  3411     0612  2E14               	goto	u173_20
  3412     0613                     u173_21:
  3413     0613  2E18               	goto	i1l1471
  3414     0614                     u173_20:
  3415     0614                     i1l1469:
  3416                           
  3417                           ;l6.c: 514:         };l6.c: 515:     }
  3418     0614  081A               	movf	26,w	;volatile
  3419     0615  0086               	movwf	6	;volatile
  3420                           
  3421                           ;l6.c: 516: 
  3422     0616  30FF               	movlw	255
  3423     0617  00F8               	movwf	_Boo
  3424     0618                     i1l1471:
  3425                           
  3426                           ;l6.c: 518: 
  3427     0618  0878               	movf	_Boo,w
  3428     0619  1903               	btfsc	3,2
  3429     061A  2E1C               	goto	u174_21
  3430     061B  2E1D               	goto	u174_20
  3431     061C                     u174_21:
  3432     061C  2E10               	goto	i1l167
  3433     061D                     u174_20:
  3434     061D                     i1l1473:
  3435                           
  3436                           ;l6.c: 522: 
  3437     061D  3082               	movlw	130
  3438     061E  00F3               	movwf	??_isr+1
  3439     061F  30DD               	movlw	221
  3440     0620  00F2               	movwf	??_isr
  3441     0621                     u345_27:
  3442     0621  0BF2               	decfsz	??_isr,f
  3443     0622  2E21               	goto	u345_27
  3444     0623  0BF3               	decfsz	??_isr+1,f
  3445     0624  2E21               	goto	u345_27
  3446     0625  2E26               	nop2
  3447     0626                     i1l1475:
  3448                           
  3449                           ;l6.c: 523:     OSCCONbits.IRCF2 = 1;
  3450     0626  1283               	bcf	3,5	;RP0=0, select bank0
  3451     0627  1303               	bcf	3,6	;RP1=0, select bank0
  3452     0628  1E0C               	btfss	12,4	;volatile
  3453     0629  2E2B               	goto	u175_21
  3454     062A  2E2C               	goto	u175_20
  3455     062B                     u175_21:
  3456     062B  2E2E               	goto	i1l170
  3457     062C                     u175_20:
  3458     062C                     i1l1477:
  3459                           
  3460                           ;l6.c: 524:     OSCCONbits.IRCF1 = 0;;l6.c: 525:     OSCCONbits.IRCF0 = 0;
  3461     062C  300D               	movlw	13
  3462     062D  0099               	movwf	25	;volatile
  3463     062E                     i1l170:	
  3464                           ;l6.c: 526:     OSCCONbits.SCS = 1;
  3465                           
  3466                           
  3467                           ;l6.c: 527: 
  3468     062E  3082               	movlw	130
  3469     062F  00F3               	movwf	??_isr+1
  3470     0630  30DD               	movlw	221
  3471     0631  00F2               	movwf	??_isr
  3472     0632                     u346_27:
  3473     0632  0BF2               	decfsz	??_isr,f
  3474     0633  2E32               	goto	u346_27
  3475     0634  0BF3               	decfsz	??_isr+1,f
  3476     0635  2E32               	goto	u346_27
  3477     0636  2E37               	nop2
  3478     0637                     i1l1479:
  3479                           
  3480                           ;l6.c: 528: 
  3481     0637  1283               	bcf	3,5	;RP0=0, select bank0
  3482     0638  1303               	bcf	3,6	;RP1=0, select bank0
  3483     0639  1E0C               	btfss	12,4	;volatile
  3484     063A  2E3C               	goto	u176_21
  3485     063B  2E3D               	goto	u176_20
  3486     063C                     u176_21:
  3487     063C  2E3F               	goto	i1l1483
  3488     063D                     u176_20:
  3489     063D                     i1l1481:
  3490                           
  3491                           ;l6.c: 529:     ANSEL = 0;;l6.c: 530:     ANSELH = 0;
  3492     063D  300D               	movlw	13
  3493     063E  0099               	movwf	25	;volatile
  3494     063F                     i1l1483:
  3495                           
  3496                           ;l6.c: 532: 
  3497     063F  120A  158A  2292  120A  118A  	fcall	i1_Menu
  3498     0644                     i1l1485:
  3499                           
  3500                           ;l6.c: 533:     PORTB = 0;
  3501     0644  01F8               	clrf	_Boo
  3502                           
  3503                           ;l6.c: 534: 
  3504     0645  2E56               	goto	i1l172
  3505     0646                     i1l1489:
  3506     0646  081A               	movf	26,w	;volatile
  3507     0647  00F2               	movwf	??_isr
  3508     0648  01F3               	clrf	??_isr+1
  3509                           
  3510                           ; Switch on 2 bytes has been partitioned into a top level switch of size 1, and 1 sub-sw
      +                          itches
  3511                           ; Switch size 1, requested type "simple"
  3512                           ; Number of cases is 1, Range of values is 0 to 0
  3513                           ; switch strategies available:
  3514                           ; Name         Instructions Cycles
  3515                           ; simple_byte            4     3 (average)
  3516                           ; direct_byte           11     8 (fixed)
  3517                           ; jumptable            260     6 (fixed)
  3518                           ;	Chosen strategy is simple_byte
  3519     0649  0873               	movf	??_isr+1,w
  3520     064A  3A00               	xorlw	0	; case 0
  3521     064B  1903               	skipnz
  3522     064C  2E4E               	goto	i1l1993
  3523     064D  2E56               	goto	i1l172
  3524     064E                     i1l1993:
  3525                           
  3526                           ; Switch size 1, requested type "simple"
  3527                           ; Number of cases is 2, Range of values is 49 to 50
  3528                           ; switch strategies available:
  3529                           ; Name         Instructions Cycles
  3530                           ; simple_byte            7     4 (average)
  3531                           ; direct_byte           17    11 (fixed)
  3532                           ; jumptable            263     9 (fixed)
  3533                           ;	Chosen strategy is simple_byte
  3534     064E  0872               	movf	??_isr,w
  3535     064F  3A31               	xorlw	49	; case 49
  3536     0650  1903               	skipnz
  3537     0651  2DF1               	goto	i1l160
  3538     0652  3A03               	xorlw	3	; case 50
  3539     0653  1903               	skipnz
  3540     0654  2E10               	goto	i1l167
  3541     0655  2E56               	goto	i1l172
  3542     0656                     i1l172:
  3543     0656  0876               	movf	??_isr+4,w
  3544     0657  008A               	movwf	10
  3545     0658  0875               	movf	??_isr+3,w
  3546     0659  0084               	movwf	4
  3547     065A  0E74               	swapf	??_isr+2,w
  3548     065B  0083               	movwf	3
  3549     065C  0EFE               	swapf	btemp,f
  3550     065D  0E7E               	swapf	btemp,w
  3551     065E  0009               	retfie
  3552     065F                     __end_of_isr:
  3553                           
  3554                           	psect	intentry
  3555     0004                     __pintentry:	
  3556                           ;incstack = 0
  3557                           ; Regs used in _isr: [wreg-fsr0h+status,2+status,0+pclath+cstack]
  3558                           
  3559     0004                     interrupt_function:
  3560     007E                     saved_w	set	btemp
  3561     0004  00FE               	movwf	btemp
  3562     0005  0E03               	swapf	3,w
  3563     0006  00F4               	movwf	??_isr+2
  3564     0007  0804               	movf	4,w
  3565     0008  00F5               	movwf	??_isr+3
  3566     0009  080A               	movf	10,w
  3567     000A  00F6               	movwf	??_isr+4
  3568     000B  120A  118A  2DEA   	ljmp	_isr
  3569                           
  3570                           	psect	text3
  3571     0A92                     __ptext3:	
  3572 ;; *************** function i1_Menu *****************
  3573 ;; Defined at:
  3574 ;;		line 51 in file "l6.c"
  3575 ;; Parameters:    Size  Location     Type
  3576 ;;		None
  3577 ;; Auto vars:     Size  Location     Type
  3578 ;;		None
  3579 ;; Return value:  Size  Location     Type
  3580 ;;                  1    wreg      void 
  3581 ;; Registers used:
  3582 ;;		wreg
  3583 ;; Tracked objects:
  3584 ;;		On entry : 0/0
  3585 ;;		On exit  : 0/0
  3586 ;;		Unchanged: 0/0
  3587 ;; Data sizes:     COMMON   BANK0   BANK1   BANK3   BANK2
  3588 ;;      Params:         0       0       0       0       0
  3589 ;;      Locals:         0       0       0       0       0
  3590 ;;      Temps:          2       0       0       0       0
  3591 ;;      Totals:         2       0       0       0       0
  3592 ;;Total ram usage:        2 bytes
  3593 ;; Hardware stack levels used: 1
  3594 ;; This function calls:
  3595 ;;		Nothing
  3596 ;; This function is called by:
  3597 ;;		_isr
  3598 ;; This function uses a non-reentrant model
  3599 ;;
  3600                           
  3601     0A92                     i1_Menu:	
  3602                           ;psect for function i1_Menu
  3603                           
  3604     0A92                     i1l1115:	
  3605                           ;incstack = 0
  3606                           ; Regs used in i1_Menu: [wreg]
  3607                           
  3608                           
  3609                           ;l6.c: 53:             TXREG = 97;
  3610     0A92  300D               	movlw	13
  3611     0A93  00F1               	movwf	??i1_Menu+1
  3612     0A94  30FB               	movlw	251
  3613     0A95  00F0               	movwf	??i1_Menu
  3614     0A96                     u347_27:
  3615     0A96  0BF0               	decfsz	??i1_Menu,f
  3616     0A97  2A96               	goto	u347_27
  3617     0A98  0BF1               	decfsz	??i1_Menu+1,f
  3618     0A99  2A96               	goto	u347_27
  3619     0A9A  2A9B               	nop2
  3620     0A9B                     i1l1117:
  3621                           
  3622                           ;l6.c: 54:         }
  3623     0A9B  1283               	bcf	3,5	;RP0=0, select bank0
  3624     0A9C  1303               	bcf	3,6	;RP1=0, select bank0
  3625     0A9D  1E0C               	btfss	12,4	;volatile
  3626     0A9E  2AA0               	goto	u86_21
  3627     0A9F  2AA1               	goto	u86_20
  3628     0AA0                     u86_21:
  3629     0AA0  2AA3               	goto	i1l70
  3630     0AA1                     u86_20:
  3631     0AA1                     i1l1119:
  3632                           
  3633                           ;l6.c: 55:         _delay((unsigned long)((5)*(8000000/4000.0)));;l6.c: 56:         if (
      +                          PIR1bits.TXIF)
  3634     0AA1  3051               	movlw	81
  3635     0AA2  0099               	movwf	25	;volatile
  3636     0AA3                     i1l70:	
  3637                           ;l6.c: 57:         {
  3638                           
  3639                           
  3640                           ;l6.c: 58:             TXREG = 99;
  3641     0AA3  300D               	movlw	13
  3642     0AA4  00F1               	movwf	??i1_Menu+1
  3643     0AA5  30FB               	movlw	251
  3644     0AA6  00F0               	movwf	??i1_Menu
  3645     0AA7                     u348_27:
  3646     0AA7  0BF0               	decfsz	??i1_Menu,f
  3647     0AA8  2AA7               	goto	u348_27
  3648     0AA9  0BF1               	decfsz	??i1_Menu+1,f
  3649     0AAA  2AA7               	goto	u348_27
  3650     0AAB  2AAC               	nop2
  3651     0AAC                     i1l1121:
  3652                           
  3653                           ;l6.c: 59:         }
  3654     0AAC  1283               	bcf	3,5	;RP0=0, select bank0
  3655     0AAD  1303               	bcf	3,6	;RP1=0, select bank0
  3656     0AAE  1E0C               	btfss	12,4	;volatile
  3657     0AAF  2AB1               	goto	u87_21
  3658     0AB0  2AB2               	goto	u87_20
  3659     0AB1                     u87_21:
  3660     0AB1  2AB4               	goto	i1l71
  3661     0AB2                     u87_20:
  3662     0AB2                     i1l1123:
  3663                           
  3664                           ;l6.c: 60:         _delay((unsigned long)((5)*(8000000/4000.0)));;l6.c: 61:         if (
      +                          PIR1bits.TXIF)
  3665     0AB2  3075               	movlw	117
  3666     0AB3  0099               	movwf	25	;volatile
  3667     0AB4                     i1l71:	
  3668                           ;l6.c: 62:         {
  3669                           
  3670                           
  3671                           ;l6.c: 63:             TXREG = 99;
  3672     0AB4  300D               	movlw	13
  3673     0AB5  00F1               	movwf	??i1_Menu+1
  3674     0AB6  30FB               	movlw	251
  3675     0AB7  00F0               	movwf	??i1_Menu
  3676     0AB8                     u349_27:
  3677     0AB8  0BF0               	decfsz	??i1_Menu,f
  3678     0AB9  2AB8               	goto	u349_27
  3679     0ABA  0BF1               	decfsz	??i1_Menu+1,f
  3680     0ABB  2AB8               	goto	u349_27
  3681     0ABC  2ABD               	nop2
  3682     0ABD                     i1l1125:
  3683                           
  3684                           ;l6.c: 64:         }
  3685     0ABD  1283               	bcf	3,5	;RP0=0, select bank0
  3686     0ABE  1303               	bcf	3,6	;RP1=0, select bank0
  3687     0ABF  1E0C               	btfss	12,4	;volatile
  3688     0AC0  2AC2               	goto	u88_21
  3689     0AC1  2AC3               	goto	u88_20
  3690     0AC2                     u88_21:
  3691     0AC2  2AC5               	goto	i1l72
  3692     0AC3                     u88_20:
  3693     0AC3                     i1l1127:
  3694                           
  3695                           ;l6.c: 65:         _delay((unsigned long)((5)*(8000000/4000.0)));;l6.c: 66:         if (
      +                          PIR1bits.TXIF)
  3696     0AC3  3065               	movlw	101
  3697     0AC4  0099               	movwf	25	;volatile
  3698     0AC5                     i1l72:	
  3699                           ;l6.c: 67:         {
  3700                           
  3701                           
  3702                           ;l6.c: 68:             TXREG = 105;
  3703     0AC5  300D               	movlw	13
  3704     0AC6  00F1               	movwf	??i1_Menu+1
  3705     0AC7  30FB               	movlw	251
  3706     0AC8  00F0               	movwf	??i1_Menu
  3707     0AC9                     u350_27:
  3708     0AC9  0BF0               	decfsz	??i1_Menu,f
  3709     0ACA  2AC9               	goto	u350_27
  3710     0ACB  0BF1               	decfsz	??i1_Menu+1,f
  3711     0ACC  2AC9               	goto	u350_27
  3712     0ACD  2ACE               	nop2
  3713     0ACE                     i1l1129:
  3714                           
  3715                           ;l6.c: 69:         }
  3716     0ACE  1283               	bcf	3,5	;RP0=0, select bank0
  3717     0ACF  1303               	bcf	3,6	;RP1=0, select bank0
  3718     0AD0  1E0C               	btfss	12,4	;volatile
  3719     0AD1  2AD3               	goto	u89_21
  3720     0AD2  2AD4               	goto	u89_20
  3721     0AD3                     u89_21:
  3722     0AD3  2AD6               	goto	i1l73
  3723     0AD4                     u89_20:
  3724     0AD4                     i1l1131:
  3725                           
  3726                           ;l6.c: 70:         _delay((unsigned long)((5)*(8000000/4000.0)));;l6.c: 71:         if (
      +                          PIR1bits.TXIF)
  3727     0AD4  3020               	movlw	32
  3728     0AD5  0099               	movwf	25	;volatile
  3729     0AD6                     i1l73:	
  3730                           ;l6.c: 72:         {
  3731                           
  3732                           
  3733                           ;l6.c: 73:             TXREG = 111;
  3734     0AD6  300D               	movlw	13
  3735     0AD7  00F1               	movwf	??i1_Menu+1
  3736     0AD8  30FB               	movlw	251
  3737     0AD9  00F0               	movwf	??i1_Menu
  3738     0ADA                     u351_27:
  3739     0ADA  0BF0               	decfsz	??i1_Menu,f
  3740     0ADB  2ADA               	goto	u351_27
  3741     0ADC  0BF1               	decfsz	??i1_Menu+1,f
  3742     0ADD  2ADA               	goto	u351_27
  3743     0ADE  2ADF               	nop2
  3744     0ADF                     i1l1133:
  3745                           
  3746                           ;l6.c: 74:         }
  3747     0ADF  1283               	bcf	3,5	;RP0=0, select bank0
  3748     0AE0  1303               	bcf	3,6	;RP1=0, select bank0
  3749     0AE1  1E0C               	btfss	12,4	;volatile
  3750     0AE2  2AE4               	goto	u90_21
  3751     0AE3  2AE5               	goto	u90_20
  3752     0AE4                     u90_21:
  3753     0AE4  2AE7               	goto	i1l74
  3754     0AE5                     u90_20:
  3755     0AE5                     i1l1135:
  3756                           
  3757                           ;l6.c: 75:         _delay((unsigned long)((5)*(8000000/4000.0)));;l6.c: 76:         if (
      +                          PIR1bits.TXIF)
  3758     0AE5  3061               	movlw	97
  3759     0AE6  0099               	movwf	25	;volatile
  3760     0AE7                     i1l74:	
  3761                           ;l6.c: 77:         {
  3762                           
  3763                           
  3764                           ;l6.c: 78:             TXREG = 110;
  3765     0AE7  300D               	movlw	13
  3766     0AE8  00F1               	movwf	??i1_Menu+1
  3767     0AE9  30FB               	movlw	251
  3768     0AEA  00F0               	movwf	??i1_Menu
  3769     0AEB                     u352_27:
  3770     0AEB  0BF0               	decfsz	??i1_Menu,f
  3771     0AEC  2AEB               	goto	u352_27
  3772     0AED  0BF1               	decfsz	??i1_Menu+1,f
  3773     0AEE  2AEB               	goto	u352_27
  3774     0AEF  2AF0               	nop2
  3775     0AF0                     i1l1137:
  3776                           
  3777                           ;l6.c: 79:         }
  3778     0AF0  1283               	bcf	3,5	;RP0=0, select bank0
  3779     0AF1  1303               	bcf	3,6	;RP1=0, select bank0
  3780     0AF2  1E0C               	btfss	12,4	;volatile
  3781     0AF3  2AF5               	goto	u91_21
  3782     0AF4  2AF6               	goto	u91_20
  3783     0AF5                     u91_21:
  3784     0AF5  2AF8               	goto	i1l75
  3785     0AF6                     u91_20:
  3786     0AF6                     i1l1139:
  3787                           
  3788                           ;l6.c: 80: ;l6.c: 81:         if (PIR1bits.TXIF)
  3789     0AF6  3063               	movlw	99
  3790     0AF7  0099               	movwf	25	;volatile
  3791     0AF8                     i1l75:	
  3792                           ;l6.c: 82:         {
  3793                           
  3794                           
  3795                           ;l6.c: 83:             TXREG = 32;
  3796     0AF8  300D               	movlw	13
  3797     0AF9  00F1               	movwf	??i1_Menu+1
  3798     0AFA  30FB               	movlw	251
  3799     0AFB  00F0               	movwf	??i1_Menu
  3800     0AFC                     u353_27:
  3801     0AFC  0BF0               	decfsz	??i1_Menu,f
  3802     0AFD  2AFC               	goto	u353_27
  3803     0AFE  0BF1               	decfsz	??i1_Menu+1,f
  3804     0AFF  2AFC               	goto	u353_27
  3805     0B00  2B01               	nop2
  3806     0B01                     i1l1141:
  3807                           
  3808                           ;l6.c: 84:         }
  3809     0B01  1283               	bcf	3,5	;RP0=0, select bank0
  3810     0B02  1303               	bcf	3,6	;RP1=0, select bank0
  3811     0B03  1E0C               	btfss	12,4	;volatile
  3812     0B04  2B06               	goto	u92_21
  3813     0B05  2B07               	goto	u92_20
  3814     0B06                     u92_21:
  3815     0B06  2B09               	goto	i1l76
  3816     0B07                     u92_20:
  3817     0B07                     i1l1143:
  3818                           
  3819                           ;l6.c: 85:         _delay((unsigned long)((5)*(8000000/4000.0)));;l6.c: 86:         if (
      +                          PIR1bits.TXIF)
  3820     0B07  3063               	movlw	99
  3821     0B08  0099               	movwf	25	;volatile
  3822     0B09                     i1l76:	
  3823                           ;l6.c: 87:         {
  3824                           
  3825                           
  3826                           ;l6.c: 88:             TXREG = 100;
  3827     0B09  300D               	movlw	13
  3828     0B0A  00F1               	movwf	??i1_Menu+1
  3829     0B0B  30FB               	movlw	251
  3830     0B0C  00F0               	movwf	??i1_Menu
  3831     0B0D                     u354_27:
  3832     0B0D  0BF0               	decfsz	??i1_Menu,f
  3833     0B0E  2B0D               	goto	u354_27
  3834     0B0F  0BF1               	decfsz	??i1_Menu+1,f
  3835     0B10  2B0D               	goto	u354_27
  3836     0B11  2B12               	nop2
  3837     0B12                     i1l1145:
  3838                           
  3839                           ;l6.c: 89:         }
  3840     0B12  1283               	bcf	3,5	;RP0=0, select bank0
  3841     0B13  1303               	bcf	3,6	;RP1=0, select bank0
  3842     0B14  1E0C               	btfss	12,4	;volatile
  3843     0B15  2B17               	goto	u93_21
  3844     0B16  2B18               	goto	u93_20
  3845     0B17                     u93_21:
  3846     0B17  2B1A               	goto	i1l77
  3847     0B18                     u93_20:
  3848     0B18                     i1l1147:
  3849                           
  3850                           ;l6.c: 90:         _delay((unsigned long)((5)*(8000000/4000.0)));;l6.c: 91:         if (
      +                          PIR1bits.TXIF)
  3851     0B18  3069               	movlw	105
  3852     0B19  0099               	movwf	25	;volatile
  3853     0B1A                     i1l77:	
  3854                           ;l6.c: 92:         {
  3855                           
  3856                           
  3857                           ;l6.c: 93:             TXREG = 101;
  3858     0B1A  300D               	movlw	13
  3859     0B1B  00F1               	movwf	??i1_Menu+1
  3860     0B1C  30FB               	movlw	251
  3861     0B1D  00F0               	movwf	??i1_Menu
  3862     0B1E                     u355_27:
  3863     0B1E  0BF0               	decfsz	??i1_Menu,f
  3864     0B1F  2B1E               	goto	u355_27
  3865     0B20  0BF1               	decfsz	??i1_Menu+1,f
  3866     0B21  2B1E               	goto	u355_27
  3867     0B22  2B23               	nop2
  3868     0B23                     i1l1149:
  3869                           
  3870                           ;l6.c: 94:         }
  3871     0B23  1283               	bcf	3,5	;RP0=0, select bank0
  3872     0B24  1303               	bcf	3,6	;RP1=0, select bank0
  3873     0B25  1E0C               	btfss	12,4	;volatile
  3874     0B26  2B28               	goto	u94_21
  3875     0B27  2B29               	goto	u94_20
  3876     0B28                     u94_21:
  3877     0B28  2B2B               	goto	i1l78
  3878     0B29                     u94_20:
  3879     0B29                     i1l1151:
  3880                           
  3881                           ;l6.c: 95:         _delay((unsigned long)((5)*(8000000/4000.0)));;l6.c: 96:         if (
      +                          PIR1bits.TXIF)
  3882     0B29  306F               	movlw	111
  3883     0B2A  0099               	movwf	25	;volatile
  3884     0B2B                     i1l78:	
  3885                           ;l6.c: 97:         {
  3886                           
  3887                           
  3888                           ;l6.c: 98:             TXREG = 115;
  3889     0B2B  300D               	movlw	13
  3890     0B2C  00F1               	movwf	??i1_Menu+1
  3891     0B2D  30FB               	movlw	251
  3892     0B2E  00F0               	movwf	??i1_Menu
  3893     0B2F                     u356_27:
  3894     0B2F  0BF0               	decfsz	??i1_Menu,f
  3895     0B30  2B2F               	goto	u356_27
  3896     0B31  0BF1               	decfsz	??i1_Menu+1,f
  3897     0B32  2B2F               	goto	u356_27
  3898     0B33  2B34               	nop2
  3899     0B34                     i1l1153:
  3900                           
  3901                           ;l6.c: 99:         }
  3902     0B34  1283               	bcf	3,5	;RP0=0, select bank0
  3903     0B35  1303               	bcf	3,6	;RP1=0, select bank0
  3904     0B36  1E0C               	btfss	12,4	;volatile
  3905     0B37  2B39               	goto	u95_21
  3906     0B38  2B3A               	goto	u95_20
  3907     0B39                     u95_21:
  3908     0B39  2B3C               	goto	i1l1157
  3909     0B3A                     u95_20:
  3910     0B3A                     i1l1155:
  3911                           
  3912                           ;l6.c: 100:         _delay((unsigned long)((5)*(8000000/4000.0)));;l6.c: 101:         if
      +                           (PIR1bits.TXIF)
  3913     0B3A  306E               	movlw	110
  3914     0B3B  0099               	movwf	25	;volatile
  3915     0B3C                     i1l1157:
  3916                           
  3917                           ;l6.c: 104:         }
  3918     0B3C  1E0C               	btfss	12,4	;volatile
  3919     0B3D  2B3F               	goto	u96_21
  3920     0B3E  2B40               	goto	u96_20
  3921     0B3F                     u96_21:
  3922     0B3F  2B42               	goto	i1l80
  3923     0B40                     u96_20:
  3924     0B40                     i1l1159:
  3925                           
  3926                           ;l6.c: 105:         _delay((unsigned long)((5)*(8000000/4000.0)));;l6.c: 106:         if
      +                           (PIR1bits.TXIF)
  3927     0B40  3020               	movlw	32
  3928     0B41  0099               	movwf	25	;volatile
  3929     0B42                     i1l80:	
  3930                           ;l6.c: 107:         {
  3931                           
  3932                           
  3933                           ;l6.c: 108:             TXREG = 97;
  3934     0B42  300D               	movlw	13
  3935     0B43  00F1               	movwf	??i1_Menu+1
  3936     0B44  30FB               	movlw	251
  3937     0B45  00F0               	movwf	??i1_Menu
  3938     0B46                     u357_27:
  3939     0B46  0BF0               	decfsz	??i1_Menu,f
  3940     0B47  2B46               	goto	u357_27
  3941     0B48  0BF1               	decfsz	??i1_Menu+1,f
  3942     0B49  2B46               	goto	u357_27
  3943     0B4A  2B4B               	nop2
  3944     0B4B                     i1l1161:
  3945                           
  3946                           ;l6.c: 109:         }
  3947     0B4B  1283               	bcf	3,5	;RP0=0, select bank0
  3948     0B4C  1303               	bcf	3,6	;RP1=0, select bank0
  3949     0B4D  1E0C               	btfss	12,4	;volatile
  3950     0B4E  2B50               	goto	u97_21
  3951     0B4F  2B51               	goto	u97_20
  3952     0B50                     u97_21:
  3953     0B50  2B53               	goto	i1l81
  3954     0B51                     u97_20:
  3955     0B51                     i1l1163:
  3956                           
  3957                           ;l6.c: 110:         _delay((unsigned long)((5)*(8000000/4000.0)));;l6.c: 111:         if
      +                           (PIR1bits.TXIF)
  3958     0B51  3064               	movlw	100
  3959     0B52  0099               	movwf	25	;volatile
  3960     0B53                     i1l81:	
  3961                           ;l6.c: 112:         {
  3962                           
  3963                           
  3964                           ;l6.c: 113:             TXREG = 32;
  3965     0B53  300D               	movlw	13
  3966     0B54  00F1               	movwf	??i1_Menu+1
  3967     0B55  30FB               	movlw	251
  3968     0B56  00F0               	movwf	??i1_Menu
  3969     0B57                     u358_27:
  3970     0B57  0BF0               	decfsz	??i1_Menu,f
  3971     0B58  2B57               	goto	u358_27
  3972     0B59  0BF1               	decfsz	??i1_Menu+1,f
  3973     0B5A  2B57               	goto	u358_27
  3974     0B5B  2B5C               	nop2
  3975     0B5C                     i1l1165:
  3976                           
  3977                           ;l6.c: 114:         }
  3978     0B5C  1283               	bcf	3,5	;RP0=0, select bank0
  3979     0B5D  1303               	bcf	3,6	;RP1=0, select bank0
  3980     0B5E  1E0C               	btfss	12,4	;volatile
  3981     0B5F  2B61               	goto	u98_21
  3982     0B60  2B62               	goto	u98_20
  3983     0B61                     u98_21:
  3984     0B61  2B64               	goto	i1l82
  3985     0B62                     u98_20:
  3986     0B62                     i1l1167:
  3987                           
  3988                           ;l6.c: 115:         _delay((unsigned long)((5)*(8000000/4000.0)));;l6.c: 116:         if
      +                           (PIR1bits.TXIF)
  3989     0B62  3065               	movlw	101
  3990     0B63  0099               	movwf	25	;volatile
  3991     0B64                     i1l82:	
  3992                           ;l6.c: 117:         {
  3993                           
  3994                           
  3995                           ;l6.c: 118:             TXREG = 101;
  3996     0B64  300D               	movlw	13
  3997     0B65  00F1               	movwf	??i1_Menu+1
  3998     0B66  30FB               	movlw	251
  3999     0B67  00F0               	movwf	??i1_Menu
  4000     0B68                     u359_27:
  4001     0B68  0BF0               	decfsz	??i1_Menu,f
  4002     0B69  2B68               	goto	u359_27
  4003     0B6A  0BF1               	decfsz	??i1_Menu+1,f
  4004     0B6B  2B68               	goto	u359_27
  4005     0B6C  2B6D               	nop2
  4006     0B6D                     i1l1169:
  4007                           
  4008                           ;l6.c: 119:         }
  4009     0B6D  1283               	bcf	3,5	;RP0=0, select bank0
  4010     0B6E  1303               	bcf	3,6	;RP1=0, select bank0
  4011     0B6F  1E0C               	btfss	12,4	;volatile
  4012     0B70  2B72               	goto	u99_21
  4013     0B71  2B73               	goto	u99_20
  4014     0B72                     u99_21:
  4015     0B72  2B75               	goto	i1l83
  4016     0B73                     u99_20:
  4017     0B73                     i1l1171:
  4018                           
  4019                           ;l6.c: 120:         _delay((unsigned long)((5)*(8000000/4000.0)));;l6.c: 121:         if
      +                           (PIR1bits.TXIF)
  4020     0B73  3073               	movlw	115
  4021     0B74  0099               	movwf	25	;volatile
  4022     0B75                     i1l83:	
  4023                           ;l6.c: 122:         {
  4024                           
  4025                           
  4026                           ;l6.c: 123:             TXREG = 106;
  4027     0B75  300D               	movlw	13
  4028     0B76  00F1               	movwf	??i1_Menu+1
  4029     0B77  30FB               	movlw	251
  4030     0B78  00F0               	movwf	??i1_Menu
  4031     0B79                     u360_27:
  4032     0B79  0BF0               	decfsz	??i1_Menu,f
  4033     0B7A  2B79               	goto	u360_27
  4034     0B7B  0BF1               	decfsz	??i1_Menu+1,f
  4035     0B7C  2B79               	goto	u360_27
  4036     0B7D  2B7E               	nop2
  4037     0B7E                     i1l1173:
  4038                           
  4039                           ;l6.c: 124:         }
  4040     0B7E  1283               	bcf	3,5	;RP0=0, select bank0
  4041     0B7F  1303               	bcf	3,6	;RP1=0, select bank0
  4042     0B80  1E0C               	btfss	12,4	;volatile
  4043     0B81  2B83               	goto	u100_21
  4044     0B82  2B84               	goto	u100_20
  4045     0B83                     u100_21:
  4046     0B83  2B86               	goto	i1l84
  4047     0B84                     u100_20:
  4048     0B84                     i1l1175:
  4049                           
  4050                           ;l6.c: 125:         _delay((unsigned long)((5)*(8000000/4000.0)));;l6.c: 126:         if
      +                           (PIR1bits.TXIF)
  4051     0B84  3065               	movlw	101
  4052     0B85  0099               	movwf	25	;volatile
  4053     0B86                     i1l84:	
  4054                           ;l6.c: 127:         {
  4055                           
  4056                           
  4057                           ;l6.c: 128:             TXREG = 101;
  4058     0B86  300D               	movlw	13
  4059     0B87  00F1               	movwf	??i1_Menu+1
  4060     0B88  30FB               	movlw	251
  4061     0B89  00F0               	movwf	??i1_Menu
  4062     0B8A                     u361_27:
  4063     0B8A  0BF0               	decfsz	??i1_Menu,f
  4064     0B8B  2B8A               	goto	u361_27
  4065     0B8C  0BF1               	decfsz	??i1_Menu+1,f
  4066     0B8D  2B8A               	goto	u361_27
  4067     0B8E  2B8F               	nop2
  4068     0B8F                     i1l1177:
  4069                           
  4070                           ;l6.c: 129:         }
  4071     0B8F  1283               	bcf	3,5	;RP0=0, select bank0
  4072     0B90  1303               	bcf	3,6	;RP1=0, select bank0
  4073     0B91  1E0C               	btfss	12,4	;volatile
  4074     0B92  2B94               	goto	u101_21
  4075     0B93  2B95               	goto	u101_20
  4076     0B94                     u101_21:
  4077     0B94  2B97               	goto	i1l85
  4078     0B95                     u101_20:
  4079     0B95                     i1l1179:
  4080                           
  4081                           ;l6.c: 130:         _delay((unsigned long)((5)*(8000000/4000.0)));;l6.c: 131:         if
      +                           (PIR1bits.TXIF)
  4082     0B95  3061               	movlw	97
  4083     0B96  0099               	movwf	25	;volatile
  4084     0B97                     i1l85:	
  4085                           ;l6.c: 132:         {
  4086                           
  4087                           
  4088                           ;l6.c: 133:             TXREG = 99;
  4089     0B97  300D               	movlw	13
  4090     0B98  00F1               	movwf	??i1_Menu+1
  4091     0B99  30FB               	movlw	251
  4092     0B9A  00F0               	movwf	??i1_Menu
  4093     0B9B                     u362_27:
  4094     0B9B  0BF0               	decfsz	??i1_Menu,f
  4095     0B9C  2B9B               	goto	u362_27
  4096     0B9D  0BF1               	decfsz	??i1_Menu+1,f
  4097     0B9E  2B9B               	goto	u362_27
  4098     0B9F  2BA0               	nop2
  4099     0BA0                     i1l1181:
  4100                           
  4101                           ;l6.c: 134:         }
  4102     0BA0  1283               	bcf	3,5	;RP0=0, select bank0
  4103     0BA1  1303               	bcf	3,6	;RP1=0, select bank0
  4104     0BA2  1E0C               	btfss	12,4	;volatile
  4105     0BA3  2BA5               	goto	u102_21
  4106     0BA4  2BA6               	goto	u102_20
  4107     0BA5                     u102_21:
  4108     0BA5  2BA8               	goto	i1l86
  4109     0BA6                     u102_20:
  4110     0BA6                     i1l1183:
  4111                           
  4112                           ;l6.c: 135:         _delay((unsigned long)((5)*(8000000/4000.0)));;l6.c: 136:         if
      +                           (PIR1bits.TXIF)
  4113     0BA6  3020               	movlw	32
  4114     0BA7  0099               	movwf	25	;volatile
  4115     0BA8                     i1l86:	
  4116                           ;l6.c: 137:         {
  4117                           
  4118                           
  4119                           ;l6.c: 138:             TXREG = 117;
  4120     0BA8  300D               	movlw	13
  4121     0BA9  00F1               	movwf	??i1_Menu+1
  4122     0BAA  30FB               	movlw	251
  4123     0BAB  00F0               	movwf	??i1_Menu
  4124     0BAC                     u363_27:
  4125     0BAC  0BF0               	decfsz	??i1_Menu,f
  4126     0BAD  2BAC               	goto	u363_27
  4127     0BAE  0BF1               	decfsz	??i1_Menu+1,f
  4128     0BAF  2BAC               	goto	u363_27
  4129     0BB0  2BB1               	nop2
  4130     0BB1                     i1l1185:
  4131                           
  4132                           ;l6.c: 139:         }
  4133     0BB1  1283               	bcf	3,5	;RP0=0, select bank0
  4134     0BB2  1303               	bcf	3,6	;RP1=0, select bank0
  4135     0BB3  1E0C               	btfss	12,4	;volatile
  4136     0BB4  2BB6               	goto	u103_21
  4137     0BB5  2BB7               	goto	u103_20
  4138     0BB6                     u103_21:
  4139     0BB6  2BB9               	goto	i1l87
  4140     0BB7                     u103_20:
  4141     0BB7                     i1l1187:
  4142                           
  4143                           ;l6.c: 140:         _delay((unsigned long)((5)*(8000000/4000.0)));;l6.c: 141:         if
      +                           (PIR1bits.TXIF)
  4144     0BB7  3065               	movlw	101
  4145     0BB8  0099               	movwf	25	;volatile
  4146     0BB9                     i1l87:	
  4147                           ;l6.c: 142:         {
  4148                           
  4149                           
  4150                           ;l6.c: 143:             TXREG = 116;
  4151     0BB9  300D               	movlw	13
  4152     0BBA  00F1               	movwf	??i1_Menu+1
  4153     0BBB  30FB               	movlw	251
  4154     0BBC  00F0               	movwf	??i1_Menu
  4155     0BBD                     u364_27:
  4156     0BBD  0BF0               	decfsz	??i1_Menu,f
  4157     0BBE  2BBD               	goto	u364_27
  4158     0BBF  0BF1               	decfsz	??i1_Menu+1,f
  4159     0BC0  2BBD               	goto	u364_27
  4160     0BC1  2BC2               	nop2
  4161     0BC2                     i1l1189:
  4162                           
  4163                           ;l6.c: 144:         }
  4164     0BC2  1283               	bcf	3,5	;RP0=0, select bank0
  4165     0BC3  1303               	bcf	3,6	;RP1=0, select bank0
  4166     0BC4  1E0C               	btfss	12,4	;volatile
  4167     0BC5  2BC7               	goto	u104_21
  4168     0BC6  2BC8               	goto	u104_20
  4169     0BC7                     u104_21:
  4170     0BC7  2BCA               	goto	i1l88
  4171     0BC8                     u104_20:
  4172     0BC8                     i1l1191:
  4173                           
  4174                           ;l6.c: 145:         _delay((unsigned long)((5)*(8000000/4000.0)));;l6.c: 146:         if
      +                           (PIR1bits.TXIF)
  4175     0BC8  306A               	movlw	106
  4176     0BC9  0099               	movwf	25	;volatile
  4177     0BCA                     i1l88:	
  4178                           ;l6.c: 147:         {
  4179                           
  4180                           
  4181                           ;l6.c: 148:             TXREG = 97;
  4182     0BCA  300D               	movlw	13
  4183     0BCB  00F1               	movwf	??i1_Menu+1
  4184     0BCC  30FB               	movlw	251
  4185     0BCD  00F0               	movwf	??i1_Menu
  4186     0BCE                     u365_27:
  4187     0BCE  0BF0               	decfsz	??i1_Menu,f
  4188     0BCF  2BCE               	goto	u365_27
  4189     0BD0  0BF1               	decfsz	??i1_Menu+1,f
  4190     0BD1  2BCE               	goto	u365_27
  4191     0BD2  2BD3               	nop2
  4192     0BD3                     i1l1193:
  4193                           
  4194                           ;l6.c: 149:         }
  4195     0BD3  1283               	bcf	3,5	;RP0=0, select bank0
  4196     0BD4  1303               	bcf	3,6	;RP1=0, select bank0
  4197     0BD5  1E0C               	btfss	12,4	;volatile
  4198     0BD6  2BD8               	goto	u105_21
  4199     0BD7  2BD9               	goto	u105_20
  4200     0BD8                     u105_21:
  4201     0BD8  2BDB               	goto	i1l89
  4202     0BD9                     u105_20:
  4203     0BD9                     i1l1195:
  4204                           
  4205                           ;l6.c: 150:         _delay((unsigned long)((5)*(8000000/4000.0)));;l6.c: 151:         if
      +                           (PIR1bits.TXIF)
  4206     0BD9  3065               	movlw	101
  4207     0BDA  0099               	movwf	25	;volatile
  4208     0BDB                     i1l89:	
  4209                           ;l6.c: 152:         {
  4210                           
  4211                           
  4212                           ;l6.c: 153:             TXREG = 114;
  4213     0BDB  300D               	movlw	13
  4214     0BDC  00F1               	movwf	??i1_Menu+1
  4215     0BDD  30FB               	movlw	251
  4216     0BDE  00F0               	movwf	??i1_Menu
  4217     0BDF                     u366_27:
  4218     0BDF  0BF0               	decfsz	??i1_Menu,f
  4219     0BE0  2BDF               	goto	u366_27
  4220     0BE1  0BF1               	decfsz	??i1_Menu+1,f
  4221     0BE2  2BDF               	goto	u366_27
  4222     0BE3  2BE4               	nop2
  4223     0BE4                     i1l1197:
  4224                           
  4225                           ;l6.c: 154:         }
  4226     0BE4  1283               	bcf	3,5	;RP0=0, select bank0
  4227     0BE5  1303               	bcf	3,6	;RP1=0, select bank0
  4228     0BE6  1E0C               	btfss	12,4	;volatile
  4229     0BE7  2BE9               	goto	u106_21
  4230     0BE8  2BEA               	goto	u106_20
  4231     0BE9                     u106_21:
  4232     0BE9  2BEC               	goto	i1l90
  4233     0BEA                     u106_20:
  4234     0BEA                     i1l1199:
  4235                           
  4236                           ;l6.c: 155:         if (PIR1bits.TXIF);l6.c: 156:         {
  4237     0BEA  3063               	movlw	99
  4238     0BEB  0099               	movwf	25	;volatile
  4239     0BEC                     i1l90:	
  4240                           ;l6.c: 157:             TXREG = 63;
  4241                           
  4242                           
  4243                           ;l6.c: 158:         }
  4244     0BEC  300D               	movlw	13
  4245     0BED  00F1               	movwf	??i1_Menu+1
  4246     0BEE  30FB               	movlw	251
  4247     0BEF  00F0               	movwf	??i1_Menu
  4248     0BF0                     u367_27:
  4249     0BF0  0BF0               	decfsz	??i1_Menu,f
  4250     0BF1  2BF0               	goto	u367_27
  4251     0BF2  0BF1               	decfsz	??i1_Menu+1,f
  4252     0BF3  2BF0               	goto	u367_27
  4253     0BF4  2BF5               	nop2
  4254     0BF5                     i1l1201:
  4255                           
  4256                           ;l6.c: 159: 
  4257     0BF5  1283               	bcf	3,5	;RP0=0, select bank0
  4258     0BF6  1303               	bcf	3,6	;RP1=0, select bank0
  4259     0BF7  1E0C               	btfss	12,4	;volatile
  4260     0BF8  2BFA               	goto	u107_21
  4261     0BF9  2BFB               	goto	u107_20
  4262     0BFA                     u107_21:
  4263     0BFA  2BFD               	goto	i1l91
  4264     0BFB                     u107_20:
  4265     0BFB                     i1l1203:
  4266                           
  4267                           ;l6.c: 160:         _delay((unsigned long)((5)*(8000000/4000.0)));;l6.c: 161:         if
      +                           (PIR1bits.TXIF)
  4268     0BFB  3075               	movlw	117
  4269     0BFC  0099               	movwf	25	;volatile
  4270     0BFD                     i1l91:	
  4271                           ;l6.c: 162:         {
  4272                           
  4273                           
  4274                           ;l6.c: 163:             TXREG = 13;
  4275     0BFD  300D               	movlw	13
  4276     0BFE  00F1               	movwf	??i1_Menu+1
  4277     0BFF  30FB               	movlw	251
  4278     0C00  00F0               	movwf	??i1_Menu
  4279     0C01                     u368_27:
  4280     0C01  0BF0               	decfsz	??i1_Menu,f
  4281     0C02  2C01               	goto	u368_27
  4282     0C03  0BF1               	decfsz	??i1_Menu+1,f
  4283     0C04  2C01               	goto	u368_27
  4284     0C05  2C06               	nop2
  4285     0C06                     i1l1205:
  4286                           
  4287                           ;l6.c: 164:         }
  4288     0C06  1283               	bcf	3,5	;RP0=0, select bank0
  4289     0C07  1303               	bcf	3,6	;RP1=0, select bank0
  4290     0C08  1E0C               	btfss	12,4	;volatile
  4291     0C09  2C0B               	goto	u108_21
  4292     0C0A  2C0C               	goto	u108_20
  4293     0C0B                     u108_21:
  4294     0C0B  2C0E               	goto	i1l92
  4295     0C0C                     u108_20:
  4296     0C0C                     i1l1207:
  4297                           
  4298                           ;l6.c: 165: ;l6.c: 166: 
  4299     0C0C  3074               	movlw	116
  4300     0C0D  0099               	movwf	25	;volatile
  4301     0C0E                     i1l92:	
  4302                           ;l6.c: 167:         _delay((unsigned long)((5)*(8000000/4000.0)));
  4303                           
  4304                           
  4305                           ;l6.c: 168:         if (PIR1bits.TXIF)
  4306     0C0E  300D               	movlw	13
  4307     0C0F  00F1               	movwf	??i1_Menu+1
  4308     0C10  30FB               	movlw	251
  4309     0C11  00F0               	movwf	??i1_Menu
  4310     0C12                     u369_27:
  4311     0C12  0BF0               	decfsz	??i1_Menu,f
  4312     0C13  2C12               	goto	u369_27
  4313     0C14  0BF1               	decfsz	??i1_Menu+1,f
  4314     0C15  2C12               	goto	u369_27
  4315     0C16  2C17               	nop2
  4316     0C17                     i1l1209:
  4317                           
  4318                           ;l6.c: 169:         {
  4319     0C17  1283               	bcf	3,5	;RP0=0, select bank0
  4320     0C18  1303               	bcf	3,6	;RP1=0, select bank0
  4321     0C19  1E0C               	btfss	12,4	;volatile
  4322     0C1A  2C1C               	goto	u109_21
  4323     0C1B  2C1D               	goto	u109_20
  4324     0C1C                     u109_21:
  4325     0C1C  2C1F               	goto	i1l93
  4326     0C1D                     u109_20:
  4327     0C1D                     i1l1211:
  4328                           
  4329                           ;l6.c: 170:             TXREG = 40;;l6.c: 171:         }
  4330     0C1D  3061               	movlw	97
  4331     0C1E  0099               	movwf	25	;volatile
  4332     0C1F                     i1l93:	
  4333                           ;l6.c: 172: 
  4334                           
  4335                           
  4336                           ;l6.c: 173:         _delay((unsigned long)((5)*(8000000/4000.0)));
  4337     0C1F  300D               	movlw	13
  4338     0C20  00F1               	movwf	??i1_Menu+1
  4339     0C21  30FB               	movlw	251
  4340     0C22  00F0               	movwf	??i1_Menu
  4341     0C23                     u370_27:
  4342     0C23  0BF0               	decfsz	??i1_Menu,f
  4343     0C24  2C23               	goto	u370_27
  4344     0C25  0BF1               	decfsz	??i1_Menu+1,f
  4345     0C26  2C23               	goto	u370_27
  4346     0C27  2C28               	nop2
  4347     0C28                     i1l1213:
  4348                           
  4349                           ;l6.c: 174:         if (PIR1bits.TXIF)
  4350     0C28  1283               	bcf	3,5	;RP0=0, select bank0
  4351     0C29  1303               	bcf	3,6	;RP1=0, select bank0
  4352     0C2A  1E0C               	btfss	12,4	;volatile
  4353     0C2B  2C2D               	goto	u110_21
  4354     0C2C  2C2E               	goto	u110_20
  4355     0C2D                     u110_21:
  4356     0C2D  2C30               	goto	i1l1217
  4357     0C2E                     u110_20:
  4358     0C2E                     i1l1215:
  4359                           
  4360                           ;l6.c: 175:         {;l6.c: 176:             TXREG = 49;
  4361     0C2E  3072               	movlw	114
  4362     0C2F  0099               	movwf	25	;volatile
  4363     0C30                     i1l1217:
  4364                           
  4365                           ;l6.c: 178: 
  4366     0C30  1E0C               	btfss	12,4	;volatile
  4367     0C31  2C33               	goto	u111_21
  4368     0C32  2C34               	goto	u111_20
  4369     0C33                     u111_21:
  4370     0C33  2C36               	goto	i1l95
  4371     0C34                     u111_20:
  4372     0C34                     i1l1219:
  4373                           
  4374                           ;l6.c: 179:         _delay((unsigned long)((5)*(8000000/4000.0)));;l6.c: 180:         if
      +                           (PIR1bits.TXIF)
  4375     0C34  303F               	movlw	63
  4376     0C35  0099               	movwf	25	;volatile
  4377     0C36                     i1l95:	
  4378                           ;l6.c: 181:         {
  4379                           
  4380                           
  4381                           ;l6.c: 183:         }
  4382     0C36  300D               	movlw	13
  4383     0C37  00F1               	movwf	??i1_Menu+1
  4384     0C38  30FB               	movlw	251
  4385     0C39  00F0               	movwf	??i1_Menu
  4386     0C3A                     u371_27:
  4387     0C3A  0BF0               	decfsz	??i1_Menu,f
  4388     0C3B  2C3A               	goto	u371_27
  4389     0C3C  0BF1               	decfsz	??i1_Menu+1,f
  4390     0C3D  2C3A               	goto	u371_27
  4391     0C3E  2C3F               	nop2
  4392     0C3F                     i1l1221:
  4393                           
  4394                           ;l6.c: 184: 
  4395     0C3F  1283               	bcf	3,5	;RP0=0, select bank0
  4396     0C40  1303               	bcf	3,6	;RP1=0, select bank0
  4397     0C41  1E0C               	btfss	12,4	;volatile
  4398     0C42  2C44               	goto	u112_21
  4399     0C43  2C45               	goto	u112_20
  4400     0C44                     u112_21:
  4401     0C44  2C47               	goto	i1l96
  4402     0C45                     u112_20:
  4403     0C45                     i1l1223:
  4404                           
  4405                           ;l6.c: 185:          _delay((unsigned long)((5)*(8000000/4000.0)));;l6.c: 186:         i
      +                          f (PIR1bits.TXIF)
  4406     0C45  300D               	movlw	13
  4407     0C46  0099               	movwf	25	;volatile
  4408     0C47                     i1l96:	
  4409                           ;l6.c: 187:         {
  4410                           
  4411                           
  4412                           ;l6.c: 190: 
  4413     0C47  300D               	movlw	13
  4414     0C48  00F1               	movwf	??i1_Menu+1
  4415     0C49  30FB               	movlw	251
  4416     0C4A  00F0               	movwf	??i1_Menu
  4417     0C4B                     u372_27:
  4418     0C4B  0BF0               	decfsz	??i1_Menu,f
  4419     0C4C  2C4B               	goto	u372_27
  4420     0C4D  0BF1               	decfsz	??i1_Menu+1,f
  4421     0C4E  2C4B               	goto	u372_27
  4422     0C4F  2C50               	nop2
  4423     0C50                     i1l1225:
  4424                           
  4425                           ;l6.c: 191:         _delay((unsigned long)((5)*(8000000/4000.0)));
  4426     0C50  1283               	bcf	3,5	;RP0=0, select bank0
  4427     0C51  1303               	bcf	3,6	;RP1=0, select bank0
  4428     0C52  1E0C               	btfss	12,4	;volatile
  4429     0C53  2C55               	goto	u113_21
  4430     0C54  2C56               	goto	u113_20
  4431     0C55                     u113_21:
  4432     0C55  2C58               	goto	i1l97
  4433     0C56                     u113_20:
  4434     0C56                     i1l1227:
  4435                           
  4436                           ;l6.c: 192:         if (PIR1bits.TXIF);l6.c: 193:         {
  4437     0C56  3028               	movlw	40
  4438     0C57  0099               	movwf	25	;volatile
  4439     0C58                     i1l97:	
  4440                           ;l6.c: 194:             TXREG = 76;
  4441                           
  4442                           
  4443                           ;l6.c: 196:         _delay((unsigned long)((5)*(8000000/4000.0)));
  4444     0C58  300D               	movlw	13
  4445     0C59  00F1               	movwf	??i1_Menu+1
  4446     0C5A  30FB               	movlw	251
  4447     0C5B  00F0               	movwf	??i1_Menu
  4448     0C5C                     u373_27:
  4449     0C5C  0BF0               	decfsz	??i1_Menu,f
  4450     0C5D  2C5C               	goto	u373_27
  4451     0C5E  0BF1               	decfsz	??i1_Menu+1,f
  4452     0C5F  2C5C               	goto	u373_27
  4453     0C60  2C61               	nop2
  4454     0C61                     i1l1229:
  4455                           
  4456                           ;l6.c: 197:         if (PIR1bits.TXIF)
  4457     0C61  1283               	bcf	3,5	;RP0=0, select bank0
  4458     0C62  1303               	bcf	3,6	;RP1=0, select bank0
  4459     0C63  1E0C               	btfss	12,4	;volatile
  4460     0C64  2C66               	goto	u114_21
  4461     0C65  2C67               	goto	u114_20
  4462     0C66                     u114_21:
  4463     0C66  2C69               	goto	i1l98
  4464     0C67                     u114_20:
  4465     0C67                     i1l1231:
  4466                           
  4467                           ;l6.c: 198:         {;l6.c: 199:             TXREG = 69;
  4468     0C67  3031               	movlw	49
  4469     0C68  0099               	movwf	25	;volatile
  4470     0C69                     i1l98:	
  4471                           ;l6.c: 200:         }
  4472                           
  4473                           
  4474                           ;l6.c: 202:         if (PIR1bits.TXIF)
  4475     0C69  300D               	movlw	13
  4476     0C6A  00F1               	movwf	??i1_Menu+1
  4477     0C6B  30FB               	movlw	251
  4478     0C6C  00F0               	movwf	??i1_Menu
  4479     0C6D                     u374_27:
  4480     0C6D  0BF0               	decfsz	??i1_Menu,f
  4481     0C6E  2C6D               	goto	u374_27
  4482     0C6F  0BF1               	decfsz	??i1_Menu+1,f
  4483     0C70  2C6D               	goto	u374_27
  4484     0C71  2C72               	nop2
  4485     0C72                     i1l1233:
  4486                           
  4487                           ;l6.c: 203:         {
  4488     0C72  1283               	bcf	3,5	;RP0=0, select bank0
  4489     0C73  1303               	bcf	3,6	;RP1=0, select bank0
  4490     0C74  1E0C               	btfss	12,4	;volatile
  4491     0C75  2C77               	goto	u115_21
  4492     0C76  2C78               	goto	u115_20
  4493     0C77                     u115_21:
  4494     0C77  2C7A               	goto	i1l99
  4495     0C78                     u115_20:
  4496     0C78                     i1l1235:
  4497                           
  4498                           ;l6.c: 204:             TXREG = 69;;l6.c: 205:         }
  4499     0C78  3029               	movlw	41
  4500     0C79  0099               	movwf	25	;volatile
  4501     0C7A                     i1l99:	
  4502                           ;l6.c: 206:         _delay((unsigned long)((5)*(8000000/4000.0)));
  4503                           
  4504                           
  4505                           ;l6.c: 208:         {
  4506     0C7A  300D               	movlw	13
  4507     0C7B  00F1               	movwf	??i1_Menu+1
  4508     0C7C  30FB               	movlw	251
  4509     0C7D  00F0               	movwf	??i1_Menu
  4510     0C7E                     u375_27:
  4511     0C7E  0BF0               	decfsz	??i1_Menu,f
  4512     0C7F  2C7E               	goto	u375_27
  4513     0C80  0BF1               	decfsz	??i1_Menu+1,f
  4514     0C81  2C7E               	goto	u375_27
  4515     0C82  2C83               	nop2
  4516     0C83                     i1l1237:
  4517                           
  4518                           ;l6.c: 209:             TXREG = 82;
  4519     0C83  1283               	bcf	3,5	;RP0=0, select bank0
  4520     0C84  1303               	bcf	3,6	;RP1=0, select bank0
  4521     0C85  1E0C               	btfss	12,4	;volatile
  4522     0C86  2C88               	goto	u116_21
  4523     0C87  2C89               	goto	u116_20
  4524     0C88                     u116_21:
  4525     0C88  2C8B               	goto	i1l100
  4526     0C89                     u116_20:
  4527     0C89                     i1l1239:
  4528                           
  4529                           ;l6.c: 210:         };l6.c: 211:         _delay((unsigned long)((5)*(8000000/4000.0)));
  4530     0C89  3020               	movlw	32
  4531     0C8A  0099               	movwf	25	;volatile
  4532     0C8B                     i1l100:	
  4533                           ;l6.c: 212:         if (PIR1bits.TXIF)
  4534                           
  4535                           
  4536                           ;l6.c: 214:             TXREG = 32;
  4537     0C8B  300D               	movlw	13
  4538     0C8C  00F1               	movwf	??i1_Menu+1
  4539     0C8D  30FB               	movlw	251
  4540     0C8E  00F0               	movwf	??i1_Menu
  4541     0C8F                     u376_27:
  4542     0C8F  0BF0               	decfsz	??i1_Menu,f
  4543     0C90  2C8F               	goto	u376_27
  4544     0C91  0BF1               	decfsz	??i1_Menu+1,f
  4545     0C92  2C8F               	goto	u376_27
  4546     0C93  2C94               	nop2
  4547     0C94                     i1l1241:
  4548                           
  4549                           ;l6.c: 215:         }
  4550     0C94  1283               	bcf	3,5	;RP0=0, select bank0
  4551     0C95  1303               	bcf	3,6	;RP1=0, select bank0
  4552     0C96  1E0C               	btfss	12,4	;volatile
  4553     0C97  2C99               	goto	u117_21
  4554     0C98  2C9A               	goto	u117_20
  4555     0C99                     u117_21:
  4556     0C99  2C9C               	goto	i1l101
  4557     0C9A                     u117_20:
  4558     0C9A                     i1l1243:
  4559                           
  4560                           ;l6.c: 216:         _delay((unsigned long)((5)*(8000000/4000.0)));;l6.c: 217:         if
      +                           (PIR1bits.TXIF)
  4561     0C9A  304C               	movlw	76
  4562     0C9B  0099               	movwf	25	;volatile
  4563     0C9C                     i1l101:	
  4564                           ;l6.c: 218:         {
  4565                           
  4566                           
  4567                           ;l6.c: 219:             TXREG = 80;
  4568     0C9C  300D               	movlw	13
  4569     0C9D  00F1               	movwf	??i1_Menu+1
  4570     0C9E  30FB               	movlw	251
  4571     0C9F  00F0               	movwf	??i1_Menu
  4572     0CA0                     u377_27:
  4573     0CA0  0BF0               	decfsz	??i1_Menu,f
  4574     0CA1  2CA0               	goto	u377_27
  4575     0CA2  0BF1               	decfsz	??i1_Menu+1,f
  4576     0CA3  2CA0               	goto	u377_27
  4577     0CA4  2CA5               	nop2
  4578     0CA5                     i1l1245:
  4579                           
  4580                           ;l6.c: 220:         }
  4581     0CA5  1283               	bcf	3,5	;RP0=0, select bank0
  4582     0CA6  1303               	bcf	3,6	;RP1=0, select bank0
  4583     0CA7  1E0C               	btfss	12,4	;volatile
  4584     0CA8  2CAA               	goto	u118_21
  4585     0CA9  2CAB               	goto	u118_20
  4586     0CAA                     u118_21:
  4587     0CAA  2CAD               	goto	i1l102
  4588     0CAB                     u118_20:
  4589     0CAB                     i1l1247:
  4590                           
  4591                           ;l6.c: 221:         _delay((unsigned long)((5)*(8000000/4000.0)));;l6.c: 222:         if
      +                           (PIR1bits.TXIF)
  4592     0CAB  3045               	movlw	69
  4593     0CAC  0099               	movwf	25	;volatile
  4594     0CAD                     i1l102:	
  4595                           ;l6.c: 223:         {
  4596                           
  4597                           
  4598                           ;l6.c: 224:             TXREG = 79;
  4599     0CAD  300D               	movlw	13
  4600     0CAE  00F1               	movwf	??i1_Menu+1
  4601     0CAF  30FB               	movlw	251
  4602     0CB0  00F0               	movwf	??i1_Menu
  4603     0CB1                     u378_27:
  4604     0CB1  0BF0               	decfsz	??i1_Menu,f
  4605     0CB2  2CB1               	goto	u378_27
  4606     0CB3  0BF1               	decfsz	??i1_Menu+1,f
  4607     0CB4  2CB1               	goto	u378_27
  4608     0CB5  2CB6               	nop2
  4609     0CB6                     i1l1249:
  4610                           
  4611                           ;l6.c: 225:         }
  4612     0CB6  1283               	bcf	3,5	;RP0=0, select bank0
  4613     0CB7  1303               	bcf	3,6	;RP1=0, select bank0
  4614     0CB8  1E0C               	btfss	12,4	;volatile
  4615     0CB9  2CBB               	goto	u119_21
  4616     0CBA  2CBC               	goto	u119_20
  4617     0CBB                     u119_21:
  4618     0CBB  2CBE               	goto	i1l103
  4619     0CBC                     u119_20:
  4620     0CBC                     i1l1251:
  4621                           
  4622                           ;l6.c: 226:         _delay((unsigned long)((5)*(8000000/4000.0)));;l6.c: 227:         if
      +                           (PIR1bits.TXIF)
  4623     0CBC  3045               	movlw	69
  4624     0CBD  0099               	movwf	25	;volatile
  4625     0CBE                     i1l103:	
  4626                           ;l6.c: 228:         {
  4627                           
  4628                           
  4629                           ;l6.c: 229:             TXREG = 84;
  4630     0CBE  300D               	movlw	13
  4631     0CBF  00F1               	movwf	??i1_Menu+1
  4632     0CC0  30FB               	movlw	251
  4633     0CC1  00F0               	movwf	??i1_Menu
  4634     0CC2                     u379_27:
  4635     0CC2  0BF0               	decfsz	??i1_Menu,f
  4636     0CC3  2CC2               	goto	u379_27
  4637     0CC4  0BF1               	decfsz	??i1_Menu+1,f
  4638     0CC5  2CC2               	goto	u379_27
  4639     0CC6  2CC7               	nop2
  4640     0CC7                     i1l1253:
  4641                           
  4642                           ;l6.c: 230:         }
  4643     0CC7  1283               	bcf	3,5	;RP0=0, select bank0
  4644     0CC8  1303               	bcf	3,6	;RP1=0, select bank0
  4645     0CC9  1E0C               	btfss	12,4	;volatile
  4646     0CCA  2CCC               	goto	u120_21
  4647     0CCB  2CCD               	goto	u120_20
  4648     0CCC                     u120_21:
  4649     0CCC  2CCF               	goto	i1l104
  4650     0CCD                     u120_20:
  4651     0CCD                     i1l1255:
  4652                           
  4653                           ;l6.c: 231:         _delay((unsigned long)((5)*(8000000/4000.0)));;l6.c: 232:         if
      +                           (PIR1bits.TXIF)
  4654     0CCD  3052               	movlw	82
  4655     0CCE  0099               	movwf	25	;volatile
  4656     0CCF                     i1l104:	
  4657                           ;l6.c: 233:         {
  4658                           
  4659                           
  4660                           ;l6.c: 234:             TXREG = 69;
  4661     0CCF  300D               	movlw	13
  4662     0CD0  00F1               	movwf	??i1_Menu+1
  4663     0CD1  30FB               	movlw	251
  4664     0CD2  00F0               	movwf	??i1_Menu
  4665     0CD3                     u380_27:
  4666     0CD3  0BF0               	decfsz	??i1_Menu,f
  4667     0CD4  2CD3               	goto	u380_27
  4668     0CD5  0BF1               	decfsz	??i1_Menu+1,f
  4669     0CD6  2CD3               	goto	u380_27
  4670     0CD7  2CD8               	nop2
  4671     0CD8                     i1l1257:
  4672                           
  4673                           ;l6.c: 235:         }
  4674     0CD8  1283               	bcf	3,5	;RP0=0, select bank0
  4675     0CD9  1303               	bcf	3,6	;RP1=0, select bank0
  4676     0CDA  1E0C               	btfss	12,4	;volatile
  4677     0CDB  2CDD               	goto	u121_21
  4678     0CDC  2CDE               	goto	u121_20
  4679     0CDD                     u121_21:
  4680     0CDD  2CE0               	goto	i1l105
  4681     0CDE                     u121_20:
  4682     0CDE                     i1l1259:
  4683                           
  4684                           ;l6.c: 236:         _delay((unsigned long)((5)*(8000000/4000.0)));;l6.c: 237:         if
      +                           (PIR1bits.TXIF)
  4685     0CDE  3020               	movlw	32
  4686     0CDF  0099               	movwf	25	;volatile
  4687     0CE0                     i1l105:	
  4688                           ;l6.c: 238:         {
  4689                           
  4690                           
  4691                           ;l6.c: 239:             TXREG = 78;
  4692     0CE0  300D               	movlw	13
  4693     0CE1  00F1               	movwf	??i1_Menu+1
  4694     0CE2  30FB               	movlw	251
  4695     0CE3  00F0               	movwf	??i1_Menu
  4696     0CE4                     u381_27:
  4697     0CE4  0BF0               	decfsz	??i1_Menu,f
  4698     0CE5  2CE4               	goto	u381_27
  4699     0CE6  0BF1               	decfsz	??i1_Menu+1,f
  4700     0CE7  2CE4               	goto	u381_27
  4701     0CE8  2CE9               	nop2
  4702     0CE9                     i1l1261:
  4703                           
  4704                           ;l6.c: 240:         }
  4705     0CE9  1283               	bcf	3,5	;RP0=0, select bank0
  4706     0CEA  1303               	bcf	3,6	;RP1=0, select bank0
  4707     0CEB  1E0C               	btfss	12,4	;volatile
  4708     0CEC  2CEE               	goto	u122_21
  4709     0CED  2CEF               	goto	u122_20
  4710     0CEE                     u122_21:
  4711     0CEE  2CF1               	goto	i1l106
  4712     0CEF                     u122_20:
  4713     0CEF                     i1l1263:
  4714                           
  4715                           ;l6.c: 241:         _delay((unsigned long)((5)*(8000000/4000.0)));;l6.c: 242:         if
      +                           (PIR1bits.TXIF)
  4716     0CEF  3050               	movlw	80
  4717     0CF0  0099               	movwf	25	;volatile
  4718     0CF1                     i1l106:	
  4719                           ;l6.c: 243:         {
  4720                           
  4721                           
  4722                           ;l6.c: 244:             TXREG = 69;
  4723     0CF1  300D               	movlw	13
  4724     0CF2  00F1               	movwf	??i1_Menu+1
  4725     0CF3  30FB               	movlw	251
  4726     0CF4  00F0               	movwf	??i1_Menu
  4727     0CF5                     u382_27:
  4728     0CF5  0BF0               	decfsz	??i1_Menu,f
  4729     0CF6  2CF5               	goto	u382_27
  4730     0CF7  0BF1               	decfsz	??i1_Menu+1,f
  4731     0CF8  2CF5               	goto	u382_27
  4732     0CF9  2CFA               	nop2
  4733     0CFA                     i1l1265:
  4734                           
  4735                           ;l6.c: 245:         }
  4736     0CFA  1283               	bcf	3,5	;RP0=0, select bank0
  4737     0CFB  1303               	bcf	3,6	;RP1=0, select bank0
  4738     0CFC  1E0C               	btfss	12,4	;volatile
  4739     0CFD  2CFF               	goto	u123_21
  4740     0CFE  2D00               	goto	u123_20
  4741     0CFF                     u123_21:
  4742     0CFF  2D02               	goto	i1l107
  4743     0D00                     u123_20:
  4744     0D00                     i1l1267:
  4745                           
  4746                           ;l6.c: 246:         _delay((unsigned long)((5)*(8000000/4000.0)));;l6.c: 247:         if
      +                           (PIR1bits.TXIF)
  4747     0D00  304F               	movlw	79
  4748     0D01  0099               	movwf	25	;volatile
  4749     0D02                     i1l107:	
  4750                           ;l6.c: 248:         {
  4751                           
  4752                           
  4753                           ;l6.c: 249:             TXREG = 78;
  4754     0D02  300D               	movlw	13
  4755     0D03  00F1               	movwf	??i1_Menu+1
  4756     0D04  30FB               	movlw	251
  4757     0D05  00F0               	movwf	??i1_Menu
  4758     0D06                     u383_27:
  4759     0D06  0BF0               	decfsz	??i1_Menu,f
  4760     0D07  2D06               	goto	u383_27
  4761     0D08  0BF1               	decfsz	??i1_Menu+1,f
  4762     0D09  2D06               	goto	u383_27
  4763     0D0A  2D0B               	nop2
  4764     0D0B                     i1l1269:
  4765                           
  4766                           ;l6.c: 250:         }
  4767     0D0B  1283               	bcf	3,5	;RP0=0, select bank0
  4768     0D0C  1303               	bcf	3,6	;RP1=0, select bank0
  4769     0D0D  1E0C               	btfss	12,4	;volatile
  4770     0D0E  2D10               	goto	u124_21
  4771     0D0F  2D11               	goto	u124_20
  4772     0D10                     u124_21:
  4773     0D10  2D13               	goto	i1l108
  4774     0D11                     u124_20:
  4775     0D11                     i1l1271:
  4776                           
  4777                           ;l6.c: 251:         _delay((unsigned long)((5)*(8000000/4000.0)));;l6.c: 252:         if
      +                           (PIR1bits.TXIF)
  4778     0D11  3054               	movlw	84
  4779     0D12  0099               	movwf	25	;volatile
  4780     0D13                     i1l108:	
  4781                           ;l6.c: 253:         {
  4782                           
  4783                           
  4784                           ;l6.c: 254:             TXREG = 67;
  4785     0D13  300D               	movlw	13
  4786     0D14  00F1               	movwf	??i1_Menu+1
  4787     0D15  30FB               	movlw	251
  4788     0D16  00F0               	movwf	??i1_Menu
  4789     0D17                     u384_27:
  4790     0D17  0BF0               	decfsz	??i1_Menu,f
  4791     0D18  2D17               	goto	u384_27
  4792     0D19  0BF1               	decfsz	??i1_Menu+1,f
  4793     0D1A  2D17               	goto	u384_27
  4794     0D1B  2D1C               	nop2
  4795     0D1C                     i1l1273:
  4796                           
  4797                           ;l6.c: 255:         }
  4798     0D1C  1283               	bcf	3,5	;RP0=0, select bank0
  4799     0D1D  1303               	bcf	3,6	;RP1=0, select bank0
  4800     0D1E  1E0C               	btfss	12,4	;volatile
  4801     0D1F  2D21               	goto	u125_21
  4802     0D20  2D22               	goto	u125_20
  4803     0D21                     u125_21:
  4804     0D21  2D24               	goto	i1l109
  4805     0D22                     u125_20:
  4806     0D22                     i1l1275:
  4807                           
  4808                           ;l6.c: 256:         _delay((unsigned long)((5)*(8000000/4000.0)));;l6.c: 257:         if
      +                           (PIR1bits.TXIF)
  4809     0D22  3045               	movlw	69
  4810     0D23  0099               	movwf	25	;volatile
  4811     0D24                     i1l109:	
  4812                           ;l6.c: 258:         {
  4813                           
  4814                           
  4815                           ;l6.c: 259:             TXREG = 73;
  4816     0D24  300D               	movlw	13
  4817     0D25  00F1               	movwf	??i1_Menu+1
  4818     0D26  30FB               	movlw	251
  4819     0D27  00F0               	movwf	??i1_Menu
  4820     0D28                     u385_27:
  4821     0D28  0BF0               	decfsz	??i1_Menu,f
  4822     0D29  2D28               	goto	u385_27
  4823     0D2A  0BF1               	decfsz	??i1_Menu+1,f
  4824     0D2B  2D28               	goto	u385_27
  4825     0D2C  2D2D               	nop2
  4826     0D2D                     i1l1277:
  4827                           
  4828                           ;l6.c: 260:         }
  4829     0D2D  1283               	bcf	3,5	;RP0=0, select bank0
  4830     0D2E  1303               	bcf	3,6	;RP1=0, select bank0
  4831     0D2F  1E0C               	btfss	12,4	;volatile
  4832     0D30  2D32               	goto	u126_21
  4833     0D31  2D33               	goto	u126_20
  4834     0D32                     u126_21:
  4835     0D32  2D35               	goto	i1l110
  4836     0D33                     u126_20:
  4837     0D33                     i1l1279:
  4838                           
  4839                           ;l6.c: 261:         _delay((unsigned long)((5)*(8000000/4000.0)));;l6.c: 262:         if
      +                           (PIR1bits.TXIF)
  4840     0D33  304E               	movlw	78
  4841     0D34  0099               	movwf	25	;volatile
  4842     0D35                     i1l110:	
  4843                           ;l6.c: 263:         {
  4844                           
  4845                           
  4846                           ;l6.c: 264:             TXREG = 79;
  4847     0D35  300D               	movlw	13
  4848     0D36  00F1               	movwf	??i1_Menu+1
  4849     0D37  30FB               	movlw	251
  4850     0D38  00F0               	movwf	??i1_Menu
  4851     0D39                     u386_27:
  4852     0D39  0BF0               	decfsz	??i1_Menu,f
  4853     0D3A  2D39               	goto	u386_27
  4854     0D3B  0BF1               	decfsz	??i1_Menu+1,f
  4855     0D3C  2D39               	goto	u386_27
  4856     0D3D  2D3E               	nop2
  4857     0D3E                     i1l1281:
  4858                           
  4859                           ;l6.c: 265:         }
  4860     0D3E  1283               	bcf	3,5	;RP0=0, select bank0
  4861     0D3F  1303               	bcf	3,6	;RP1=0, select bank0
  4862     0D40  1E0C               	btfss	12,4	;volatile
  4863     0D41  2D43               	goto	u127_21
  4864     0D42  2D44               	goto	u127_20
  4865     0D43                     u127_21:
  4866     0D43  2D46               	goto	i1l111
  4867     0D44                     u127_20:
  4868     0D44                     i1l1283:
  4869                           
  4870                           ;l6.c: 266:         _delay((unsigned long)((5)*(8000000/4000.0)));;l6.c: 267:         if
      +                           (PIR1bits.TXIF)
  4871     0D44  3045               	movlw	69
  4872     0D45  0099               	movwf	25	;volatile
  4873     0D46                     i1l111:	
  4874                           ;l6.c: 268:         {
  4875                           
  4876                           
  4877                           ;l6.c: 269:             TXREG = 77;
  4878     0D46  300D               	movlw	13
  4879     0D47  00F1               	movwf	??i1_Menu+1
  4880     0D48  30FB               	movlw	251
  4881     0D49  00F0               	movwf	??i1_Menu
  4882     0D4A                     u387_27:
  4883     0D4A  0BF0               	decfsz	??i1_Menu,f
  4884     0D4B  2D4A               	goto	u387_27
  4885     0D4C  0BF1               	decfsz	??i1_Menu+1,f
  4886     0D4D  2D4A               	goto	u387_27
  4887     0D4E  2D4F               	nop2
  4888     0D4F                     i1l1285:
  4889                           
  4890                           ;l6.c: 270:         }
  4891     0D4F  1283               	bcf	3,5	;RP0=0, select bank0
  4892     0D50  1303               	bcf	3,6	;RP1=0, select bank0
  4893     0D51  1E0C               	btfss	12,4	;volatile
  4894     0D52  2D54               	goto	u128_21
  4895     0D53  2D55               	goto	u128_20
  4896     0D54                     u128_21:
  4897     0D54  2D57               	goto	i1l112
  4898     0D55                     u128_20:
  4899     0D55                     i1l1287:
  4900                           
  4901                           ;l6.c: 271:         _delay((unsigned long)((5)*(8000000/4000.0)));;l6.c: 272:         if
      +                           (PIR1bits.TXIF)
  4902     0D55  304E               	movlw	78
  4903     0D56  0099               	movwf	25	;volatile
  4904     0D57                     i1l112:	
  4905                           ;l6.c: 273:         {
  4906                           
  4907                           
  4908                           ;l6.c: 274:             TXREG = 69;
  4909     0D57  300D               	movlw	13
  4910     0D58  00F1               	movwf	??i1_Menu+1
  4911     0D59  30FB               	movlw	251
  4912     0D5A  00F0               	movwf	??i1_Menu
  4913     0D5B                     u388_27:
  4914     0D5B  0BF0               	decfsz	??i1_Menu,f
  4915     0D5C  2D5B               	goto	u388_27
  4916     0D5D  0BF1               	decfsz	??i1_Menu+1,f
  4917     0D5E  2D5B               	goto	u388_27
  4918     0D5F  2D60               	nop2
  4919     0D60                     i1l1289:
  4920                           
  4921                           ;l6.c: 275:         }
  4922     0D60  1283               	bcf	3,5	;RP0=0, select bank0
  4923     0D61  1303               	bcf	3,6	;RP1=0, select bank0
  4924     0D62  1E0C               	btfss	12,4	;volatile
  4925     0D63  2D65               	goto	u129_21
  4926     0D64  2D66               	goto	u129_20
  4927     0D65                     u129_21:
  4928     0D65  2D68               	goto	i1l113
  4929     0D66                     u129_20:
  4930     0D66                     i1l1291:
  4931                           
  4932                           ;l6.c: 276:         _delay((unsigned long)((5)*(8000000/4000.0)));;l6.c: 277:         if
      +                           (PIR1bits.TXIF)
  4933     0D66  3043               	movlw	67
  4934     0D67  0099               	movwf	25	;volatile
  4935     0D68                     i1l113:	
  4936                           ;l6.c: 278:         {
  4937                           
  4938                           
  4939                           ;l6.c: 279:             TXREG = 84;
  4940     0D68  300D               	movlw	13
  4941     0D69  00F1               	movwf	??i1_Menu+1
  4942     0D6A  30FB               	movlw	251
  4943     0D6B  00F0               	movwf	??i1_Menu
  4944     0D6C                     u389_27:
  4945     0D6C  0BF0               	decfsz	??i1_Menu,f
  4946     0D6D  2D6C               	goto	u389_27
  4947     0D6E  0BF1               	decfsz	??i1_Menu+1,f
  4948     0D6F  2D6C               	goto	u389_27
  4949     0D70  2D71               	nop2
  4950     0D71                     i1l1293:
  4951                           
  4952                           ;l6.c: 280:         }
  4953     0D71  1283               	bcf	3,5	;RP0=0, select bank0
  4954     0D72  1303               	bcf	3,6	;RP1=0, select bank0
  4955     0D73  1E0C               	btfss	12,4	;volatile
  4956     0D74  2D76               	goto	u130_21
  4957     0D75  2D77               	goto	u130_20
  4958     0D76                     u130_21:
  4959     0D76  2D79               	goto	i1l114
  4960     0D77                     u130_20:
  4961     0D77                     i1l1295:
  4962                           
  4963                           ;l6.c: 281:         _delay((unsigned long)((5)*(8000000/4000.0)));;l6.c: 282:         if
      +                           (PIR1bits.TXIF)
  4964     0D77  3049               	movlw	73
  4965     0D78  0099               	movwf	25	;volatile
  4966     0D79                     i1l114:	
  4967                           ;l6.c: 283:         {
  4968                           
  4969                           
  4970                           ;l6.c: 284:             TXREG = 82;
  4971     0D79  300D               	movlw	13
  4972     0D7A  00F1               	movwf	??i1_Menu+1
  4973     0D7B  30FB               	movlw	251
  4974     0D7C  00F0               	movwf	??i1_Menu
  4975     0D7D                     u390_27:
  4976     0D7D  0BF0               	decfsz	??i1_Menu,f
  4977     0D7E  2D7D               	goto	u390_27
  4978     0D7F  0BF1               	decfsz	??i1_Menu+1,f
  4979     0D80  2D7D               	goto	u390_27
  4980     0D81  2D82               	nop2
  4981     0D82                     i1l1297:
  4982                           
  4983                           ;l6.c: 285:         }
  4984     0D82  1283               	bcf	3,5	;RP0=0, select bank0
  4985     0D83  1303               	bcf	3,6	;RP1=0, select bank0
  4986     0D84  1E0C               	btfss	12,4	;volatile
  4987     0D85  2D87               	goto	u131_21
  4988     0D86  2D88               	goto	u131_20
  4989     0D87                     u131_21:
  4990     0D87  2D8A               	goto	i1l115
  4991     0D88                     u131_20:
  4992     0D88                     i1l1299:
  4993                           
  4994                           ;l6.c: 286:         _delay((unsigned long)((5)*(8000000/4000.0)));;l6.c: 287:         if
      +                           (PIR1bits.TXIF)
  4995     0D88  304F               	movlw	79
  4996     0D89  0099               	movwf	25	;volatile
  4997     0D8A                     i1l115:	
  4998                           ;l6.c: 288:         {
  4999                           
  5000                           
  5001                           ;l6.c: 289:             TXREG = 79;
  5002     0D8A  300D               	movlw	13
  5003     0D8B  00F1               	movwf	??i1_Menu+1
  5004     0D8C  30FB               	movlw	251
  5005     0D8D  00F0               	movwf	??i1_Menu
  5006     0D8E                     u391_27:
  5007     0D8E  0BF0               	decfsz	??i1_Menu,f
  5008     0D8F  2D8E               	goto	u391_27
  5009     0D90  0BF1               	decfsz	??i1_Menu+1,f
  5010     0D91  2D8E               	goto	u391_27
  5011     0D92  2D93               	nop2
  5012     0D93                     i1l1301:
  5013                           
  5014                           ;l6.c: 290:         }
  5015     0D93  1283               	bcf	3,5	;RP0=0, select bank0
  5016     0D94  1303               	bcf	3,6	;RP1=0, select bank0
  5017     0D95  1E0C               	btfss	12,4	;volatile
  5018     0D96  2D98               	goto	u132_21
  5019     0D97  2D99               	goto	u132_20
  5020     0D98                     u132_21:
  5021     0D98  2D9B               	goto	i1l116
  5022     0D99                     u132_20:
  5023     0D99                     i1l1303:
  5024                           
  5025                           ;l6.c: 291: ;l6.c: 292:         _delay((unsigned long)((5)*(8000000/4000.0)));
  5026     0D99  304D               	movlw	77
  5027     0D9A  0099               	movwf	25	;volatile
  5028     0D9B                     i1l116:	
  5029                           ;l6.c: 293:         if (PIR1bits.TXIF)
  5030                           
  5031                           
  5032                           ;l6.c: 294:         {
  5033     0D9B  300D               	movlw	13
  5034     0D9C  00F1               	movwf	??i1_Menu+1
  5035     0D9D  30FB               	movlw	251
  5036     0D9E  00F0               	movwf	??i1_Menu
  5037     0D9F                     u392_27:
  5038     0D9F  0BF0               	decfsz	??i1_Menu,f
  5039     0DA0  2D9F               	goto	u392_27
  5040     0DA1  0BF1               	decfsz	??i1_Menu+1,f
  5041     0DA2  2D9F               	goto	u392_27
  5042     0DA3  2DA4               	nop2
  5043     0DA4                     i1l1305:
  5044                           
  5045                           ;l6.c: 295:             TXREG = 10;
  5046     0DA4  1283               	bcf	3,5	;RP0=0, select bank0
  5047     0DA5  1303               	bcf	3,6	;RP1=0, select bank0
  5048     0DA6  1E0C               	btfss	12,4	;volatile
  5049     0DA7  2DA9               	goto	u133_21
  5050     0DA8  2DAA               	goto	u133_20
  5051     0DA9                     u133_21:
  5052     0DA9  2DAC               	goto	i1l117
  5053     0DAA                     u133_20:
  5054     0DAA                     i1l1307:
  5055                           
  5056                           ;l6.c: 296:         };l6.c: 297: 
  5057     0DAA  3045               	movlw	69
  5058     0DAB  0099               	movwf	25	;volatile
  5059     0DAC                     i1l117:	
  5060                           ;l6.c: 298:         _delay((unsigned long)((5)*(8000000/4000.0)));
  5061                           
  5062                           
  5063                           ;l6.c: 299:         if (PIR1bits.TXIF)
  5064     0DAC  300D               	movlw	13
  5065     0DAD  00F1               	movwf	??i1_Menu+1
  5066     0DAE  30FB               	movlw	251
  5067     0DAF  00F0               	movwf	??i1_Menu
  5068     0DB0                     u393_27:
  5069     0DB0  0BF0               	decfsz	??i1_Menu,f
  5070     0DB1  2DB0               	goto	u393_27
  5071     0DB2  0BF1               	decfsz	??i1_Menu+1,f
  5072     0DB3  2DB0               	goto	u393_27
  5073     0DB4  2DB5               	nop2
  5074     0DB5                     i1l1309:
  5075                           
  5076                           ;l6.c: 300:         {
  5077     0DB5  1283               	bcf	3,5	;RP0=0, select bank0
  5078     0DB6  1303               	bcf	3,6	;RP1=0, select bank0
  5079     0DB7  1E0C               	btfss	12,4	;volatile
  5080     0DB8  2DBA               	goto	u134_21
  5081     0DB9  2DBB               	goto	u134_20
  5082     0DBA                     u134_21:
  5083     0DBA  2DBD               	goto	i1l118
  5084     0DBB                     u134_20:
  5085     0DBB                     i1l1311:
  5086                           
  5087                           ;l6.c: 301:             TXREG = 32;;l6.c: 302:         }
  5088     0DBB  3054               	movlw	84
  5089     0DBC  0099               	movwf	25	;volatile
  5090     0DBD                     i1l118:	
  5091                           ;l6.c: 303: 
  5092                           
  5093                           
  5094                           ;l6.c: 304: 
  5095     0DBD  300D               	movlw	13
  5096     0DBE  00F1               	movwf	??i1_Menu+1
  5097     0DBF  30FB               	movlw	251
  5098     0DC0  00F0               	movwf	??i1_Menu
  5099     0DC1                     u394_27:
  5100     0DC1  0BF0               	decfsz	??i1_Menu,f
  5101     0DC2  2DC1               	goto	u394_27
  5102     0DC3  0BF1               	decfsz	??i1_Menu+1,f
  5103     0DC4  2DC1               	goto	u394_27
  5104     0DC5  2DC6               	nop2
  5105     0DC6                     i1l1313:
  5106                           
  5107                           ;l6.c: 305:         _delay((unsigned long)((5)*(8000000/4000.0)));
  5108     0DC6  1283               	bcf	3,5	;RP0=0, select bank0
  5109     0DC7  1303               	bcf	3,6	;RP1=0, select bank0
  5110     0DC8  1E0C               	btfss	12,4	;volatile
  5111     0DC9  2DCB               	goto	u135_21
  5112     0DCA  2DCC               	goto	u135_20
  5113     0DCB                     u135_21:
  5114     0DCB  2DCE               	goto	i1l119
  5115     0DCC                     u135_20:
  5116     0DCC                     i1l1315:
  5117                           
  5118                           ;l6.c: 306:         if (PIR1bits.TXIF);l6.c: 307:         {
  5119     0DCC  3052               	movlw	82
  5120     0DCD  0099               	movwf	25	;volatile
  5121     0DCE                     i1l119:	
  5122                           ;l6.c: 308:             TXREG = 13;
  5123                           
  5124                           
  5125                           ;l6.c: 309:         }
  5126     0DCE  300D               	movlw	13
  5127     0DCF  00F1               	movwf	??i1_Menu+1
  5128     0DD0  30FB               	movlw	251
  5129     0DD1  00F0               	movwf	??i1_Menu
  5130     0DD2                     u395_27:
  5131     0DD2  0BF0               	decfsz	??i1_Menu,f
  5132     0DD3  2DD2               	goto	u395_27
  5133     0DD4  0BF1               	decfsz	??i1_Menu+1,f
  5134     0DD5  2DD2               	goto	u395_27
  5135     0DD6  2DD7               	nop2
  5136     0DD7                     i1l1317:
  5137                           
  5138                           ;l6.c: 310: 
  5139     0DD7  1283               	bcf	3,5	;RP0=0, select bank0
  5140     0DD8  1303               	bcf	3,6	;RP1=0, select bank0
  5141     0DD9  1E0C               	btfss	12,4	;volatile
  5142     0DDA  2DDC               	goto	u136_21
  5143     0DDB  2DDD               	goto	u136_20
  5144     0DDC                     u136_21:
  5145     0DDC  2DDF               	goto	i1l120
  5146     0DDD                     u136_20:
  5147     0DDD                     i1l1319:
  5148                           
  5149                           ;l6.c: 311:         _delay((unsigned long)((5)*(8000000/4000.0)));;l6.c: 312:         if
      +                           (PIR1bits.TXIF)
  5150     0DDD  304F               	movlw	79
  5151     0DDE  0099               	movwf	25	;volatile
  5152     0DDF                     i1l120:	
  5153                           ;l6.c: 313:         {
  5154                           
  5155                           
  5156                           ;l6.c: 315:         }
  5157     0DDF  300D               	movlw	13
  5158     0DE0  00F1               	movwf	??i1_Menu+1
  5159     0DE1  30FB               	movlw	251
  5160     0DE2  00F0               	movwf	??i1_Menu
  5161     0DE3                     u396_27:
  5162     0DE3  0BF0               	decfsz	??i1_Menu,f
  5163     0DE4  2DE3               	goto	u396_27
  5164     0DE5  0BF1               	decfsz	??i1_Menu+1,f
  5165     0DE6  2DE3               	goto	u396_27
  5166     0DE7  2DE8               	nop2
  5167     0DE8                     i1l1321:
  5168                           
  5169                           ;l6.c: 316:         _delay((unsigned long)((5)*(8000000/4000.0)));
  5170     0DE8  1283               	bcf	3,5	;RP0=0, select bank0
  5171     0DE9  1303               	bcf	3,6	;RP1=0, select bank0
  5172     0DEA  1E0C               	btfss	12,4	;volatile
  5173     0DEB  2DED               	goto	u137_21
  5174     0DEC  2DEE               	goto	u137_20
  5175     0DED                     u137_21:
  5176     0DED  2DF0               	goto	i1l121
  5177     0DEE                     u137_20:
  5178     0DEE                     i1l1323:
  5179                           
  5180                           ;l6.c: 317:         if (PIR1bits.TXIF);l6.c: 318:         {
  5181     0DEE  300A               	movlw	10
  5182     0DEF  0099               	movwf	25	;volatile
  5183     0DF0                     i1l121:	
  5184                           ;l6.c: 319:             TXREG = 50;
  5185                           
  5186                           
  5187                           ;l6.c: 321:         _delay((unsigned long)((5)*(8000000/4000.0)));
  5188     0DF0  300D               	movlw	13
  5189     0DF1  00F1               	movwf	??i1_Menu+1
  5190     0DF2  30FB               	movlw	251
  5191     0DF3  00F0               	movwf	??i1_Menu
  5192     0DF4                     u397_27:
  5193     0DF4  0BF0               	decfsz	??i1_Menu,f
  5194     0DF5  2DF4               	goto	u397_27
  5195     0DF6  0BF1               	decfsz	??i1_Menu+1,f
  5196     0DF7  2DF4               	goto	u397_27
  5197     0DF8  2DF9               	nop2
  5198     0DF9                     i1l1325:
  5199                           
  5200                           ;l6.c: 322:         if (PIR1bits.TXIF)
  5201     0DF9  1283               	bcf	3,5	;RP0=0, select bank0
  5202     0DFA  1303               	bcf	3,6	;RP1=0, select bank0
  5203     0DFB  1E0C               	btfss	12,4	;volatile
  5204     0DFC  2DFE               	goto	u138_21
  5205     0DFD  2DFF               	goto	u138_20
  5206     0DFE                     u138_21:
  5207     0DFE  2E01               	goto	i1l122
  5208     0DFF                     u138_20:
  5209     0DFF                     i1l1327:
  5210                           
  5211                           ;l6.c: 323:         {;l6.c: 324:             TXREG = 41;
  5212     0DFF  3020               	movlw	32
  5213     0E00  0099               	movwf	25	;volatile
  5214     0E01                     i1l122:	
  5215                           ;l6.c: 325:         }
  5216                           
  5217                           
  5218                           ;l6.c: 328:         {
  5219     0E01  300D               	movlw	13
  5220     0E02  00F1               	movwf	??i1_Menu+1
  5221     0E03  30FB               	movlw	251
  5222     0E04  00F0               	movwf	??i1_Menu
  5223     0E05                     u398_27:
  5224     0E05  0BF0               	decfsz	??i1_Menu,f
  5225     0E06  2E05               	goto	u398_27
  5226     0E07  0BF1               	decfsz	??i1_Menu+1,f
  5227     0E08  2E05               	goto	u398_27
  5228     0E09  2E0A               	nop2
  5229     0E0A                     i1l1329:
  5230                           
  5231                           ;l6.c: 329:             TXREG = 32;
  5232     0E0A  1283               	bcf	3,5	;RP0=0, select bank0
  5233     0E0B  1303               	bcf	3,6	;RP1=0, select bank0
  5234     0E0C  1E0C               	btfss	12,4	;volatile
  5235     0E0D  2E0F               	goto	u139_21
  5236     0E0E  2E10               	goto	u139_20
  5237     0E0F                     u139_21:
  5238     0E0F  2E12               	goto	i1l123
  5239     0E10                     u139_20:
  5240     0E10                     i1l1331:
  5241                           
  5242                           ;l6.c: 330:         };l6.c: 331:         _delay((unsigned long)((5)*(8000000/4000.0)));
  5243     0E10  300D               	movlw	13
  5244     0E11  0099               	movwf	25	;volatile
  5245     0E12                     i1l123:	
  5246                           ;l6.c: 332:         if (PIR1bits.TXIF)
  5247                           
  5248                           
  5249                           ;l6.c: 334:             TXREG = 69;
  5250     0E12  300D               	movlw	13
  5251     0E13  00F1               	movwf	??i1_Menu+1
  5252     0E14  30FB               	movlw	251
  5253     0E15  00F0               	movwf	??i1_Menu
  5254     0E16                     u399_27:
  5255     0E16  0BF0               	decfsz	??i1_Menu,f
  5256     0E17  2E16               	goto	u399_27
  5257     0E18  0BF1               	decfsz	??i1_Menu+1,f
  5258     0E19  2E16               	goto	u399_27
  5259     0E1A  2E1B               	nop2
  5260     0E1B                     i1l1333:
  5261                           
  5262                           ;l6.c: 335:         }
  5263     0E1B  1283               	bcf	3,5	;RP0=0, select bank0
  5264     0E1C  1303               	bcf	3,6	;RP1=0, select bank0
  5265     0E1D  1E0C               	btfss	12,4	;volatile
  5266     0E1E  2E20               	goto	u140_21
  5267     0E1F  2E21               	goto	u140_20
  5268     0E20                     u140_21:
  5269     0E20  2E23               	goto	i1l124
  5270     0E21                     u140_20:
  5271     0E21                     i1l1335:
  5272                           
  5273                           ;l6.c: 336:         _delay((unsigned long)((5)*(8000000/4000.0)));;l6.c: 337:         if
      +                           (PIR1bits.TXIF)
  5274     0E21  3028               	movlw	40
  5275     0E22  0099               	movwf	25	;volatile
  5276     0E23                     i1l124:	
  5277                           ;l6.c: 338:         {
  5278                           
  5279                           
  5280                           ;l6.c: 339:             TXREG = 78;
  5281     0E23  300D               	movlw	13
  5282     0E24  00F1               	movwf	??i1_Menu+1
  5283     0E25  30FB               	movlw	251
  5284     0E26  00F0               	movwf	??i1_Menu
  5285     0E27                     u400_27:
  5286     0E27  0BF0               	decfsz	??i1_Menu,f
  5287     0E28  2E27               	goto	u400_27
  5288     0E29  0BF1               	decfsz	??i1_Menu+1,f
  5289     0E2A  2E27               	goto	u400_27
  5290     0E2B  2E2C               	nop2
  5291     0E2C                     i1l1337:
  5292                           
  5293                           ;l6.c: 340:         }
  5294     0E2C  1283               	bcf	3,5	;RP0=0, select bank0
  5295     0E2D  1303               	bcf	3,6	;RP1=0, select bank0
  5296     0E2E  1E0C               	btfss	12,4	;volatile
  5297     0E2F  2E31               	goto	u141_21
  5298     0E30  2E32               	goto	u141_20
  5299     0E31                     u141_21:
  5300     0E31  2E34               	goto	i1l125
  5301     0E32                     u141_20:
  5302     0E32                     i1l1339:
  5303                           
  5304                           ;l6.c: 341:         _delay((unsigned long)((5)*(8000000/4000.0)));;l6.c: 342:         if
      +                           (PIR1bits.TXIF)
  5305     0E32  3032               	movlw	50
  5306     0E33  0099               	movwf	25	;volatile
  5307     0E34                     i1l125:	
  5308                           ;l6.c: 343:         {
  5309                           
  5310                           
  5311                           ;l6.c: 344:             TXREG = 86;
  5312     0E34  300D               	movlw	13
  5313     0E35  00F1               	movwf	??i1_Menu+1
  5314     0E36  30FB               	movlw	251
  5315     0E37  00F0               	movwf	??i1_Menu
  5316     0E38                     u401_27:
  5317     0E38  0BF0               	decfsz	??i1_Menu,f
  5318     0E39  2E38               	goto	u401_27
  5319     0E3A  0BF1               	decfsz	??i1_Menu+1,f
  5320     0E3B  2E38               	goto	u401_27
  5321     0E3C  2E3D               	nop2
  5322     0E3D                     i1l1341:
  5323                           
  5324                           ;l6.c: 345:         }
  5325     0E3D  1283               	bcf	3,5	;RP0=0, select bank0
  5326     0E3E  1303               	bcf	3,6	;RP1=0, select bank0
  5327     0E3F  1E0C               	btfss	12,4	;volatile
  5328     0E40  2E42               	goto	u142_21
  5329     0E41  2E43               	goto	u142_20
  5330     0E42                     u142_21:
  5331     0E42  2E45               	goto	i1l126
  5332     0E43                     u142_20:
  5333     0E43                     i1l1343:
  5334                           
  5335                           ;l6.c: 346:         _delay((unsigned long)((5)*(8000000/4000.0)));;l6.c: 347:         if
      +                           (PIR1bits.TXIF)
  5336     0E43  3029               	movlw	41
  5337     0E44  0099               	movwf	25	;volatile
  5338     0E45                     i1l126:	
  5339                           ;l6.c: 348:         {
  5340                           
  5341                           
  5342                           ;l6.c: 349:             TXREG = 73;
  5343     0E45  300D               	movlw	13
  5344     0E46  00F1               	movwf	??i1_Menu+1
  5345     0E47  30FB               	movlw	251
  5346     0E48  00F0               	movwf	??i1_Menu
  5347     0E49                     u402_27:
  5348     0E49  0BF0               	decfsz	??i1_Menu,f
  5349     0E4A  2E49               	goto	u402_27
  5350     0E4B  0BF1               	decfsz	??i1_Menu+1,f
  5351     0E4C  2E49               	goto	u402_27
  5352     0E4D  2E4E               	nop2
  5353     0E4E                     i1l1345:
  5354                           
  5355                           ;l6.c: 350:         }
  5356     0E4E  1283               	bcf	3,5	;RP0=0, select bank0
  5357     0E4F  1303               	bcf	3,6	;RP1=0, select bank0
  5358     0E50  1E0C               	btfss	12,4	;volatile
  5359     0E51  2E53               	goto	u143_21
  5360     0E52  2E54               	goto	u143_20
  5361     0E53                     u143_21:
  5362     0E53  2E56               	goto	i1l127
  5363     0E54                     u143_20:
  5364     0E54                     i1l1347:
  5365                           
  5366                           ;l6.c: 351:         _delay((unsigned long)((5)*(8000000/4000.0)));;l6.c: 352:         if
      +                           (PIR1bits.TXIF)
  5367     0E54  3020               	movlw	32
  5368     0E55  0099               	movwf	25	;volatile
  5369     0E56                     i1l127:	
  5370                           ;l6.c: 353:         {
  5371                           
  5372                           
  5373                           ;l6.c: 354:             TXREG = 65;
  5374     0E56  300D               	movlw	13
  5375     0E57  00F1               	movwf	??i1_Menu+1
  5376     0E58  30FB               	movlw	251
  5377     0E59  00F0               	movwf	??i1_Menu
  5378     0E5A                     u403_27:
  5379     0E5A  0BF0               	decfsz	??i1_Menu,f
  5380     0E5B  2E5A               	goto	u403_27
  5381     0E5C  0BF1               	decfsz	??i1_Menu+1,f
  5382     0E5D  2E5A               	goto	u403_27
  5383     0E5E  2E5F               	nop2
  5384     0E5F                     i1l1349:
  5385                           
  5386                           ;l6.c: 355:         }
  5387     0E5F  1283               	bcf	3,5	;RP0=0, select bank0
  5388     0E60  1303               	bcf	3,6	;RP1=0, select bank0
  5389     0E61  1E0C               	btfss	12,4	;volatile
  5390     0E62  2E64               	goto	u144_21
  5391     0E63  2E65               	goto	u144_20
  5392     0E64                     u144_21:
  5393     0E64  2E67               	goto	i1l128
  5394     0E65                     u144_20:
  5395     0E65                     i1l1351:
  5396                           
  5397                           ;l6.c: 356:         _delay((unsigned long)((5)*(8000000/4000.0)));;l6.c: 357:         if
      +                           (PIR1bits.TXIF)
  5398     0E65  3045               	movlw	69
  5399     0E66  0099               	movwf	25	;volatile
  5400     0E67                     i1l128:	
  5401                           ;l6.c: 358:         {
  5402                           
  5403                           
  5404                           ;l6.c: 359:             TXREG = 82;
  5405     0E67  300D               	movlw	13
  5406     0E68  00F1               	movwf	??i1_Menu+1
  5407     0E69  30FB               	movlw	251
  5408     0E6A  00F0               	movwf	??i1_Menu
  5409     0E6B                     u404_27:
  5410     0E6B  0BF0               	decfsz	??i1_Menu,f
  5411     0E6C  2E6B               	goto	u404_27
  5412     0E6D  0BF1               	decfsz	??i1_Menu+1,f
  5413     0E6E  2E6B               	goto	u404_27
  5414     0E6F  2E70               	nop2
  5415     0E70                     i1l1353:
  5416                           
  5417                           ;l6.c: 360:         }
  5418     0E70  1283               	bcf	3,5	;RP0=0, select bank0
  5419     0E71  1303               	bcf	3,6	;RP1=0, select bank0
  5420     0E72  1E0C               	btfss	12,4	;volatile
  5421     0E73  2E75               	goto	u145_21
  5422     0E74  2E76               	goto	u145_20
  5423     0E75                     u145_21:
  5424     0E75  2E78               	goto	i1l129
  5425     0E76                     u145_20:
  5426     0E76                     i1l1355:
  5427                           
  5428                           ;l6.c: 361:         _delay((unsigned long)((5)*(8000000/4000.0)));;l6.c: 362:         if
      +                           (PIR1bits.TXIF)
  5429     0E76  304E               	movlw	78
  5430     0E77  0099               	movwf	25	;volatile
  5431     0E78                     i1l129:	
  5432                           ;l6.c: 363:         {
  5433                           
  5434                           
  5435                           ;l6.c: 364:             TXREG = 32;
  5436     0E78  300D               	movlw	13
  5437     0E79  00F1               	movwf	??i1_Menu+1
  5438     0E7A  30FB               	movlw	251
  5439     0E7B  00F0               	movwf	??i1_Menu
  5440     0E7C                     u405_27:
  5441     0E7C  0BF0               	decfsz	??i1_Menu,f
  5442     0E7D  2E7C               	goto	u405_27
  5443     0E7E  0BF1               	decfsz	??i1_Menu+1,f
  5444     0E7F  2E7C               	goto	u405_27
  5445     0E80  2E81               	nop2
  5446     0E81                     i1l1357:
  5447                           
  5448                           ;l6.c: 365:         }
  5449     0E81  1283               	bcf	3,5	;RP0=0, select bank0
  5450     0E82  1303               	bcf	3,6	;RP1=0, select bank0
  5451     0E83  1E0C               	btfss	12,4	;volatile
  5452     0E84  2E86               	goto	u146_21
  5453     0E85  2E87               	goto	u146_20
  5454     0E86                     u146_21:
  5455     0E86  2E89               	goto	i1l130
  5456     0E87                     u146_20:
  5457     0E87                     i1l1359:
  5458                           
  5459                           ;l6.c: 366:         _delay((unsigned long)((5)*(8000000/4000.0)));;l6.c: 367:         if
      +                           (PIR1bits.TXIF)
  5460     0E87  3056               	movlw	86
  5461     0E88  0099               	movwf	25	;volatile
  5462     0E89                     i1l130:	
  5463                           ;l6.c: 368:         {
  5464                           
  5465                           
  5466                           ;l6.c: 369:             TXREG = 65;
  5467     0E89  300D               	movlw	13
  5468     0E8A  00F1               	movwf	??i1_Menu+1
  5469     0E8B  30FB               	movlw	251
  5470     0E8C  00F0               	movwf	??i1_Menu
  5471     0E8D                     u406_27:
  5472     0E8D  0BF0               	decfsz	??i1_Menu,f
  5473     0E8E  2E8D               	goto	u406_27
  5474     0E8F  0BF1               	decfsz	??i1_Menu+1,f
  5475     0E90  2E8D               	goto	u406_27
  5476     0E91  2E92               	nop2
  5477     0E92                     i1l1361:
  5478                           
  5479                           ;l6.c: 370:         }
  5480     0E92  1283               	bcf	3,5	;RP0=0, select bank0
  5481     0E93  1303               	bcf	3,6	;RP1=0, select bank0
  5482     0E94  1E0C               	btfss	12,4	;volatile
  5483     0E95  2E97               	goto	u147_21
  5484     0E96  2E98               	goto	u147_20
  5485     0E97                     u147_21:
  5486     0E97  2E9A               	goto	i1l131
  5487     0E98                     u147_20:
  5488     0E98                     i1l1363:
  5489                           
  5490                           ;l6.c: 371:         _delay((unsigned long)((5)*(8000000/4000.0)));;l6.c: 372:         if
      +                           (PIR1bits.TXIF)
  5491     0E98  3049               	movlw	73
  5492     0E99  0099               	movwf	25	;volatile
  5493     0E9A                     i1l131:	
  5494                           ;l6.c: 373:         {
  5495                           
  5496                           
  5497                           ;l6.c: 374:             TXREG = 83;
  5498     0E9A  300D               	movlw	13
  5499     0E9B  00F1               	movwf	??i1_Menu+1
  5500     0E9C  30FB               	movlw	251
  5501     0E9D  00F0               	movwf	??i1_Menu
  5502     0E9E                     u407_27:
  5503     0E9E  0BF0               	decfsz	??i1_Menu,f
  5504     0E9F  2E9E               	goto	u407_27
  5505     0EA0  0BF1               	decfsz	??i1_Menu+1,f
  5506     0EA1  2E9E               	goto	u407_27
  5507     0EA2  2EA3               	nop2
  5508     0EA3                     i1l1365:
  5509                           
  5510                           ;l6.c: 375:         }
  5511     0EA3  1283               	bcf	3,5	;RP0=0, select bank0
  5512     0EA4  1303               	bcf	3,6	;RP1=0, select bank0
  5513     0EA5  1E0C               	btfss	12,4	;volatile
  5514     0EA6  2EA8               	goto	u148_21
  5515     0EA7  2EA9               	goto	u148_20
  5516     0EA8                     u148_21:
  5517     0EA8  2EAB               	goto	i1l132
  5518     0EA9                     u148_20:
  5519     0EA9                     i1l1367:
  5520                           
  5521                           ;l6.c: 376: ;l6.c: 377:         _delay((unsigned long)((5)*(8000000/4000.0)));
  5522     0EA9  3041               	movlw	65
  5523     0EAA  0099               	movwf	25	;volatile
  5524     0EAB                     i1l132:	
  5525                           ;l6.c: 378:         if (PIR1bits.TXIF)
  5526                           
  5527                           
  5528                           ;l6.c: 379:         {
  5529     0EAB  300D               	movlw	13
  5530     0EAC  00F1               	movwf	??i1_Menu+1
  5531     0EAD  30FB               	movlw	251
  5532     0EAE  00F0               	movwf	??i1_Menu
  5533     0EAF                     u408_27:
  5534     0EAF  0BF0               	decfsz	??i1_Menu,f
  5535     0EB0  2EAF               	goto	u408_27
  5536     0EB1  0BF1               	decfsz	??i1_Menu+1,f
  5537     0EB2  2EAF               	goto	u408_27
  5538     0EB3  2EB4               	nop2
  5539     0EB4                     i1l1369:
  5540                           
  5541                           ;l6.c: 380:             TXREG = 67;
  5542     0EB4  1283               	bcf	3,5	;RP0=0, select bank0
  5543     0EB5  1303               	bcf	3,6	;RP1=0, select bank0
  5544     0EB6  1E0C               	btfss	12,4	;volatile
  5545     0EB7  2EB9               	goto	u149_21
  5546     0EB8  2EBA               	goto	u149_20
  5547     0EB9                     u149_21:
  5548     0EB9  2EBC               	goto	i1l133
  5549     0EBA                     u149_20:
  5550     0EBA                     i1l1371:
  5551                           
  5552                           ;l6.c: 381:         };l6.c: 382: 
  5553     0EBA  3052               	movlw	82
  5554     0EBB  0099               	movwf	25	;volatile
  5555     0EBC                     i1l133:	
  5556                           ;l6.c: 383:         _delay((unsigned long)((5)*(8000000/4000.0)));
  5557                           
  5558                           
  5559                           ;l6.c: 384:         if (PIR1bits.TXIF)
  5560     0EBC  300D               	movlw	13
  5561     0EBD  00F1               	movwf	??i1_Menu+1
  5562     0EBE  30FB               	movlw	251
  5563     0EBF  00F0               	movwf	??i1_Menu
  5564     0EC0                     u409_27:
  5565     0EC0  0BF0               	decfsz	??i1_Menu,f
  5566     0EC1  2EC0               	goto	u409_27
  5567     0EC2  0BF1               	decfsz	??i1_Menu+1,f
  5568     0EC3  2EC0               	goto	u409_27
  5569     0EC4  2EC5               	nop2
  5570     0EC5                     i1l1373:
  5571                           
  5572                           ;l6.c: 385:         {
  5573     0EC5  1283               	bcf	3,5	;RP0=0, select bank0
  5574     0EC6  1303               	bcf	3,6	;RP1=0, select bank0
  5575     0EC7  1E0C               	btfss	12,4	;volatile
  5576     0EC8  2ECA               	goto	u150_21
  5577     0EC9  2ECB               	goto	u150_20
  5578     0ECA                     u150_21:
  5579     0ECA  2ECD               	goto	i1l134
  5580     0ECB                     u150_20:
  5581     0ECB                     i1l1375:
  5582                           
  5583                           ;l6.c: 386:             TXREG = 73;;l6.c: 387:         }
  5584     0ECB  3020               	movlw	32
  5585     0ECC  0099               	movwf	25	;volatile
  5586     0ECD                     i1l134:	
  5587                           ;l6.c: 388:         _delay((unsigned long)((5)*(8000000/4000.0)));
  5588                           
  5589                           
  5590                           ;l6.c: 389:         if (PIR1bits.TXIF)
  5591     0ECD  300D               	movlw	13
  5592     0ECE  00F1               	movwf	??i1_Menu+1
  5593     0ECF  30FB               	movlw	251
  5594     0ED0  00F0               	movwf	??i1_Menu
  5595     0ED1                     u410_27:
  5596     0ED1  0BF0               	decfsz	??i1_Menu,f
  5597     0ED2  2ED1               	goto	u410_27
  5598     0ED3  0BF1               	decfsz	??i1_Menu+1,f
  5599     0ED4  2ED1               	goto	u410_27
  5600     0ED5  2ED6               	nop2
  5601     0ED6                     i1l1377:
  5602                           
  5603                           ;l6.c: 390:         {
  5604     0ED6  1283               	bcf	3,5	;RP0=0, select bank0
  5605     0ED7  1303               	bcf	3,6	;RP1=0, select bank0
  5606     0ED8  1E0C               	btfss	12,4	;volatile
  5607     0ED9  2EDB               	goto	u151_21
  5608     0EDA  2EDC               	goto	u151_20
  5609     0EDB                     u151_21:
  5610     0EDB  2EDE               	goto	i1l135
  5611     0EDC                     u151_20:
  5612     0EDC                     i1l1379:
  5613                           
  5614                           ;l6.c: 391:             TXREG = 73;;l6.c: 392:         }
  5615     0EDC  3041               	movlw	65
  5616     0EDD  0099               	movwf	25	;volatile
  5617     0EDE                     i1l135:	
  5618                           ;l6.c: 393:         _delay((unsigned long)((5)*(8000000/4000.0)));
  5619                           
  5620                           
  5621                           ;l6.c: 394:         if (PIR1bits.TXIF)
  5622     0EDE  300D               	movlw	13
  5623     0EDF  00F1               	movwf	??i1_Menu+1
  5624     0EE0  30FB               	movlw	251
  5625     0EE1  00F0               	movwf	??i1_Menu
  5626     0EE2                     u411_27:
  5627     0EE2  0BF0               	decfsz	??i1_Menu,f
  5628     0EE3  2EE2               	goto	u411_27
  5629     0EE4  0BF1               	decfsz	??i1_Menu+1,f
  5630     0EE5  2EE2               	goto	u411_27
  5631     0EE6  2EE7               	nop2
  5632     0EE7                     i1l1381:
  5633                           
  5634                           ;l6.c: 395:         {
  5635     0EE7  1283               	bcf	3,5	;RP0=0, select bank0
  5636     0EE8  1303               	bcf	3,6	;RP1=0, select bank0
  5637     0EE9  1E0C               	btfss	12,4	;volatile
  5638     0EEA  2EEC               	goto	u152_21
  5639     0EEB  2EED               	goto	u152_20
  5640     0EEC                     u152_21:
  5641     0EEC  2EEF               	goto	i1l136
  5642     0EED                     u152_20:
  5643     0EED                     i1l1383:
  5644                           
  5645                           ;l6.c: 396:             TXREG = 13;;l6.c: 397:         }
  5646     0EED  3053               	movlw	83
  5647     0EEE  0099               	movwf	25	;volatile
  5648     0EEF                     i1l136:	
  5649                           ;l6.c: 398:         _delay((unsigned long)((5)*(8000000/4000.0)));
  5650                           
  5651                           
  5652                           ;l6.c: 400:         {
  5653     0EEF  300D               	movlw	13
  5654     0EF0  00F1               	movwf	??i1_Menu+1
  5655     0EF1  30FB               	movlw	251
  5656     0EF2  00F0               	movwf	??i1_Menu
  5657     0EF3                     u412_27:
  5658     0EF3  0BF0               	decfsz	??i1_Menu,f
  5659     0EF4  2EF3               	goto	u412_27
  5660     0EF5  0BF1               	decfsz	??i1_Menu+1,f
  5661     0EF6  2EF3               	goto	u412_27
  5662     0EF7  2EF8               	nop2
  5663     0EF8                     i1l1385:
  5664                           
  5665                           ;l6.c: 401:             TXREG = 10;
  5666     0EF8  1283               	bcf	3,5	;RP0=0, select bank0
  5667     0EF9  1303               	bcf	3,6	;RP1=0, select bank0
  5668     0EFA  1E0C               	btfss	12,4	;volatile
  5669     0EFB  2EFD               	goto	u153_21
  5670     0EFC  2EFE               	goto	u153_20
  5671     0EFD                     u153_21:
  5672     0EFD  2F00               	goto	i1l137
  5673     0EFE                     u153_20:
  5674     0EFE                     i1l1387:
  5675                           
  5676                           ;l6.c: 402:         };l6.c: 403: 
  5677     0EFE  3043               	movlw	67
  5678     0EFF  0099               	movwf	25	;volatile
  5679     0F00                     i1l137:	
  5680                           ;l6.c: 404:         _delay((unsigned long)((5)*(8000000/4000.0)));
  5681                           
  5682                           
  5683                           ;l6.c: 406:         {
  5684     0F00  300D               	movlw	13
  5685     0F01  00F1               	movwf	??i1_Menu+1
  5686     0F02  30FB               	movlw	251
  5687     0F03  00F0               	movwf	??i1_Menu
  5688     0F04                     u413_27:
  5689     0F04  0BF0               	decfsz	??i1_Menu,f
  5690     0F05  2F04               	goto	u413_27
  5691     0F06  0BF1               	decfsz	??i1_Menu+1,f
  5692     0F07  2F04               	goto	u413_27
  5693     0F08  2F09               	nop2
  5694     0F09                     i1l1389:
  5695                           
  5696                           ;l6.c: 407:             TXREG = 40;
  5697     0F09  1283               	bcf	3,5	;RP0=0, select bank0
  5698     0F0A  1303               	bcf	3,6	;RP1=0, select bank0
  5699     0F0B  1E0C               	btfss	12,4	;volatile
  5700     0F0C  2F0E               	goto	u154_21
  5701     0F0D  2F0F               	goto	u154_20
  5702     0F0E                     u154_21:
  5703     0F0E  2F11               	goto	i1l138
  5704     0F0F                     u154_20:
  5705     0F0F                     i1l1391:
  5706                           
  5707                           ;l6.c: 408:         };l6.c: 409:         _delay((unsigned long)((5)*(8000000/4000.0)));
  5708     0F0F  3049               	movlw	73
  5709     0F10  0099               	movwf	25	;volatile
  5710     0F11                     i1l138:	
  5711                           ;l6.c: 410:         if (PIR1bits.TXIF)
  5712                           
  5713                           
  5714                           ;l6.c: 411:         {
  5715     0F11  300D               	movlw	13
  5716     0F12  00F1               	movwf	??i1_Menu+1
  5717     0F13  30FB               	movlw	251
  5718     0F14  00F0               	movwf	??i1_Menu
  5719     0F15                     u414_27:
  5720     0F15  0BF0               	decfsz	??i1_Menu,f
  5721     0F16  2F15               	goto	u414_27
  5722     0F17  0BF1               	decfsz	??i1_Menu+1,f
  5723     0F18  2F15               	goto	u414_27
  5724     0F19  2F1A               	nop2
  5725     0F1A                     i1l1393:
  5726                           
  5727                           ;l6.c: 412:             TXREG = 51;
  5728     0F1A  1283               	bcf	3,5	;RP0=0, select bank0
  5729     0F1B  1303               	bcf	3,6	;RP1=0, select bank0
  5730     0F1C  1E0C               	btfss	12,4	;volatile
  5731     0F1D  2F1F               	goto	u155_21
  5732     0F1E  2F20               	goto	u155_20
  5733     0F1F                     u155_21:
  5734     0F1F  2F22               	goto	i1l139
  5735     0F20                     u155_20:
  5736     0F20                     i1l1395:
  5737                           
  5738                           ;l6.c: 413:         };l6.c: 414:         _delay((unsigned long)((5)*(8000000/4000.0)));
  5739     0F20  3049               	movlw	73
  5740     0F21  0099               	movwf	25	;volatile
  5741     0F22                     i1l139:	
  5742                           ;l6.c: 415:         if (PIR1bits.TXIF)
  5743                           
  5744                           
  5745                           ;l6.c: 416:         {
  5746     0F22  300D               	movlw	13
  5747     0F23  00F1               	movwf	??i1_Menu+1
  5748     0F24  30FB               	movlw	251
  5749     0F25  00F0               	movwf	??i1_Menu
  5750     0F26                     u415_27:
  5751     0F26  0BF0               	decfsz	??i1_Menu,f
  5752     0F27  2F26               	goto	u415_27
  5753     0F28  0BF1               	decfsz	??i1_Menu+1,f
  5754     0F29  2F26               	goto	u415_27
  5755     0F2A  2F2B               	nop2
  5756     0F2B                     i1l1397:
  5757                           
  5758                           ;l6.c: 417:             TXREG = 41;
  5759     0F2B  1283               	bcf	3,5	;RP0=0, select bank0
  5760     0F2C  1303               	bcf	3,6	;RP1=0, select bank0
  5761     0F2D  1E0C               	btfss	12,4	;volatile
  5762     0F2E  2F30               	goto	u156_21
  5763     0F2F  2F31               	goto	u156_20
  5764     0F30                     u156_21:
  5765     0F30  2F33               	goto	i1l140
  5766     0F31                     u156_20:
  5767     0F31                     i1l1399:
  5768                           
  5769                           ;l6.c: 418:         };l6.c: 419: 
  5770     0F31  300D               	movlw	13
  5771     0F32  0099               	movwf	25	;volatile
  5772     0F33                     i1l140:	
  5773                           ;l6.c: 420:          _delay((unsigned long)((5)*(8000000/4000.0)));
  5774                           
  5775                           
  5776                           ;l6.c: 421:         if (PIR1bits.TXIF)
  5777     0F33  300D               	movlw	13
  5778     0F34  00F1               	movwf	??i1_Menu+1
  5779     0F35  30FB               	movlw	251
  5780     0F36  00F0               	movwf	??i1_Menu
  5781     0F37                     u416_27:
  5782     0F37  0BF0               	decfsz	??i1_Menu,f
  5783     0F38  2F37               	goto	u416_27
  5784     0F39  0BF1               	decfsz	??i1_Menu+1,f
  5785     0F3A  2F37               	goto	u416_27
  5786     0F3B  2F3C               	nop2
  5787     0F3C                     i1l1401:
  5788                           
  5789                           ;l6.c: 422:         {
  5790     0F3C  1283               	bcf	3,5	;RP0=0, select bank0
  5791     0F3D  1303               	bcf	3,6	;RP1=0, select bank0
  5792     0F3E  1E0C               	btfss	12,4	;volatile
  5793     0F3F  2F41               	goto	u157_21
  5794     0F40  2F42               	goto	u157_20
  5795     0F41                     u157_21:
  5796     0F41  2F44               	goto	i1l141
  5797     0F42                     u157_20:
  5798     0F42                     i1l1403:
  5799                           
  5800                           ;l6.c: 423:             TXREG = 32;;l6.c: 424:         }
  5801     0F42  300A               	movlw	10
  5802     0F43  0099               	movwf	25	;volatile
  5803     0F44                     i1l141:	
  5804                           ;l6.c: 425:         _delay((unsigned long)((5)*(8000000/4000.0)));
  5805                           
  5806                           
  5807                           ;l6.c: 427:         {
  5808     0F44  300D               	movlw	13
  5809     0F45  00F1               	movwf	??i1_Menu+1
  5810     0F46  30FB               	movlw	251
  5811     0F47  00F0               	movwf	??i1_Menu
  5812     0F48                     u417_27:
  5813     0F48  0BF0               	decfsz	??i1_Menu,f
  5814     0F49  2F48               	goto	u417_27
  5815     0F4A  0BF1               	decfsz	??i1_Menu+1,f
  5816     0F4B  2F48               	goto	u417_27
  5817     0F4C  2F4D               	nop2
  5818     0F4D                     i1l1405:
  5819                           
  5820                           ;l6.c: 428:             TXREG = 67;
  5821     0F4D  1283               	bcf	3,5	;RP0=0, select bank0
  5822     0F4E  1303               	bcf	3,6	;RP1=0, select bank0
  5823     0F4F  1E0C               	btfss	12,4	;volatile
  5824     0F50  2F52               	goto	u158_21
  5825     0F51  2F53               	goto	u158_20
  5826     0F52                     u158_21:
  5827     0F52  2F55               	goto	i1l142
  5828     0F53                     u158_20:
  5829     0F53                     i1l1407:
  5830                           
  5831                           ;l6.c: 429:         };l6.c: 430:         _delay((unsigned long)((5)*(8000000/4000.0)));
  5832     0F53  3028               	movlw	40
  5833     0F54  0099               	movwf	25	;volatile
  5834     0F55                     i1l142:	
  5835                           ;l6.c: 431:         if (PIR1bits.TXIF)
  5836                           
  5837                           
  5838                           ;l6.c: 432:         {
  5839     0F55  300D               	movlw	13
  5840     0F56  00F1               	movwf	??i1_Menu+1
  5841     0F57  30FB               	movlw	251
  5842     0F58  00F0               	movwf	??i1_Menu
  5843     0F59                     u418_27:
  5844     0F59  0BF0               	decfsz	??i1_Menu,f
  5845     0F5A  2F59               	goto	u418_27
  5846     0F5B  0BF1               	decfsz	??i1_Menu+1,f
  5847     0F5C  2F59               	goto	u418_27
  5848     0F5D  2F5E               	nop2
  5849     0F5E                     i1l1409:
  5850                           
  5851                           ;l6.c: 433:             TXREG = 65;
  5852     0F5E  1283               	bcf	3,5	;RP0=0, select bank0
  5853     0F5F  1303               	bcf	3,6	;RP1=0, select bank0
  5854     0F60  1E0C               	btfss	12,4	;volatile
  5855     0F61  2F63               	goto	u159_21
  5856     0F62  2F64               	goto	u159_20
  5857     0F63                     u159_21:
  5858     0F63  2F66               	goto	i1l143
  5859     0F64                     u159_20:
  5860     0F64                     i1l1411:
  5861                           
  5862                           ;l6.c: 434:         };l6.c: 435: 
  5863     0F64  3033               	movlw	51
  5864     0F65  0099               	movwf	25	;volatile
  5865     0F66                     i1l143:	
  5866                           ;l6.c: 436:         _delay((unsigned long)((5)*(8000000/4000.0)));
  5867                           
  5868                           
  5869                           ;l6.c: 437:         if (PIR1bits.TXIF)
  5870     0F66  300D               	movlw	13
  5871     0F67  00F1               	movwf	??i1_Menu+1
  5872     0F68  30FB               	movlw	251
  5873     0F69  00F0               	movwf	??i1_Menu
  5874     0F6A                     u419_27:
  5875     0F6A  0BF0               	decfsz	??i1_Menu,f
  5876     0F6B  2F6A               	goto	u419_27
  5877     0F6C  0BF1               	decfsz	??i1_Menu+1,f
  5878     0F6D  2F6A               	goto	u419_27
  5879     0F6E  2F6F               	nop2
  5880     0F6F                     i1l1413:
  5881                           
  5882                           ;l6.c: 438:         {
  5883     0F6F  1283               	bcf	3,5	;RP0=0, select bank0
  5884     0F70  1303               	bcf	3,6	;RP1=0, select bank0
  5885     0F71  1E0C               	btfss	12,4	;volatile
  5886     0F72  2F74               	goto	u160_21
  5887     0F73  2F75               	goto	u160_20
  5888     0F74                     u160_21:
  5889     0F74  2F77               	goto	i1l144
  5890     0F75                     u160_20:
  5891     0F75                     i1l1415:
  5892                           
  5893                           ;l6.c: 439:             TXREG = 68;;l6.c: 440:         }
  5894     0F75  3029               	movlw	41
  5895     0F76  0099               	movwf	25	;volatile
  5896     0F77                     i1l144:	
  5897                           ;l6.c: 441:         _delay((unsigned long)((5)*(8000000/4000.0)));
  5898                           
  5899                           
  5900                           ;l6.c: 443:         {
  5901     0F77  300D               	movlw	13
  5902     0F78  00F1               	movwf	??i1_Menu+1
  5903     0F79  30FB               	movlw	251
  5904     0F7A  00F0               	movwf	??i1_Menu
  5905     0F7B                     u420_27:
  5906     0F7B  0BF0               	decfsz	??i1_Menu,f
  5907     0F7C  2F7B               	goto	u420_27
  5908     0F7D  0BF1               	decfsz	??i1_Menu+1,f
  5909     0F7E  2F7B               	goto	u420_27
  5910     0F7F  2F80               	nop2
  5911     0F80                     i1l1417:
  5912                           
  5913                           ;l6.c: 444:             TXREG = 69;
  5914     0F80  1283               	bcf	3,5	;RP0=0, select bank0
  5915     0F81  1303               	bcf	3,6	;RP1=0, select bank0
  5916     0F82  1E0C               	btfss	12,4	;volatile
  5917     0F83  2F85               	goto	u161_21
  5918     0F84  2F86               	goto	u161_20
  5919     0F85                     u161_21:
  5920     0F85  2F88               	goto	i1l145
  5921     0F86                     u161_20:
  5922     0F86                     i1l1419:
  5923                           
  5924                           ;l6.c: 445:         };l6.c: 446:         _delay((unsigned long)((5)*(8000000/4000.0)));
  5925     0F86  3020               	movlw	32
  5926     0F87  0099               	movwf	25	;volatile
  5927     0F88                     i1l145:	
  5928                           ;l6.c: 447:         if (PIR1bits.TXIF)
  5929                           
  5930                           
  5931                           ;l6.c: 448:         {
  5932     0F88  300D               	movlw	13
  5933     0F89  00F1               	movwf	??i1_Menu+1
  5934     0F8A  30FB               	movlw	251
  5935     0F8B  00F0               	movwf	??i1_Menu
  5936     0F8C                     u421_27:
  5937     0F8C  0BF0               	decfsz	??i1_Menu,f
  5938     0F8D  2F8C               	goto	u421_27
  5939     0F8E  0BF1               	decfsz	??i1_Menu+1,f
  5940     0F8F  2F8C               	goto	u421_27
  5941     0F90  2F91               	nop2
  5942     0F91                     i1l1421:
  5943                           
  5944                           ;l6.c: 449:             TXREG = 78;
  5945     0F91  1283               	bcf	3,5	;RP0=0, select bank0
  5946     0F92  1303               	bcf	3,6	;RP1=0, select bank0
  5947     0F93  1E0C               	btfss	12,4	;volatile
  5948     0F94  2F96               	goto	u162_21
  5949     0F95  2F97               	goto	u162_20
  5950     0F96                     u162_21:
  5951     0F96  2F99               	goto	i1l146
  5952     0F97                     u162_20:
  5953     0F97                     i1l1423:
  5954                           
  5955                           ;l6.c: 450:         };l6.c: 451:         _delay((unsigned long)((5)*(8000000/4000.0)));
  5956     0F97  3043               	movlw	67
  5957     0F98  0099               	movwf	25	;volatile
  5958     0F99                     i1l146:	
  5959                           ;l6.c: 452:         if (PIR1bits.TXIF)
  5960                           
  5961                           
  5962                           ;l6.c: 453:         {
  5963     0F99  300D               	movlw	13
  5964     0F9A  00F1               	movwf	??i1_Menu+1
  5965     0F9B  30FB               	movlw	251
  5966     0F9C  00F0               	movwf	??i1_Menu
  5967     0F9D                     u422_27:
  5968     0F9D  0BF0               	decfsz	??i1_Menu,f
  5969     0F9E  2F9D               	goto	u422_27
  5970     0F9F  0BF1               	decfsz	??i1_Menu+1,f
  5971     0FA0  2F9D               	goto	u422_27
  5972     0FA1  2FA2               	nop2
  5973     0FA2                     i1l1425:
  5974                           
  5975                           ;l6.c: 454:             TXREG = 65;
  5976     0FA2  1283               	bcf	3,5	;RP0=0, select bank0
  5977     0FA3  1303               	bcf	3,6	;RP1=0, select bank0
  5978     0FA4  1E0C               	btfss	12,4	;volatile
  5979     0FA5  2FA7               	goto	u163_21
  5980     0FA6  2FA8               	goto	u163_20
  5981     0FA7                     u163_21:
  5982     0FA7  2FAA               	goto	i1l147
  5983     0FA8                     u163_20:
  5984     0FA8                     i1l1427:
  5985                           
  5986                           ;l6.c: 455:         };l6.c: 456: 
  5987     0FA8  3041               	movlw	65
  5988     0FA9  0099               	movwf	25	;volatile
  5989     0FAA                     i1l147:	
  5990                           ;l6.c: 457:         _delay((unsigned long)((5)*(8000000/4000.0)));
  5991                           
  5992                           
  5993                           ;l6.c: 459:         {
  5994     0FAA  300D               	movlw	13
  5995     0FAB  00F1               	movwf	??i1_Menu+1
  5996     0FAC  30FB               	movlw	251
  5997     0FAD  00F0               	movwf	??i1_Menu
  5998     0FAE                     u423_27:
  5999     0FAE  0BF0               	decfsz	??i1_Menu,f
  6000     0FAF  2FAE               	goto	u423_27
  6001     0FB0  0BF1               	decfsz	??i1_Menu+1,f
  6002     0FB1  2FAE               	goto	u423_27
  6003     0FB2  2FB3               	nop2
  6004     0FB3                     i1l1429:
  6005                           
  6006                           ;l6.c: 460:             TXREG = 13;
  6007     0FB3  1283               	bcf	3,5	;RP0=0, select bank0
  6008     0FB4  1303               	bcf	3,6	;RP1=0, select bank0
  6009     0FB5  1E0C               	btfss	12,4	;volatile
  6010     0FB6  2FB8               	goto	u164_21
  6011     0FB7  2FB9               	goto	u164_20
  6012     0FB8                     u164_21:
  6013     0FB8  2FBB               	goto	i1l148
  6014     0FB9                     u164_20:
  6015     0FB9                     i1l1431:
  6016                           
  6017                           ;l6.c: 461:         };l6.c: 462: 
  6018     0FB9  3044               	movlw	68
  6019     0FBA  0099               	movwf	25	;volatile
  6020     0FBB                     i1l148:	
  6021                           ;l6.c: 463: }
  6022                           
  6023                           
  6024                           ;l6.c: 464: 
  6025     0FBB  300D               	movlw	13
  6026     0FBC  00F1               	movwf	??i1_Menu+1
  6027     0FBD  30FB               	movlw	251
  6028     0FBE  00F0               	movwf	??i1_Menu
  6029     0FBF                     u424_27:
  6030     0FBF  0BF0               	decfsz	??i1_Menu,f
  6031     0FC0  2FBF               	goto	u424_27
  6032     0FC1  0BF1               	decfsz	??i1_Menu+1,f
  6033     0FC2  2FBF               	goto	u424_27
  6034     0FC3  2FC4               	nop2
  6035     0FC4                     i1l1433:
  6036                           
  6037                           ;l6.c: 465: 
  6038     0FC4  1283               	bcf	3,5	;RP0=0, select bank0
  6039     0FC5  1303               	bcf	3,6	;RP1=0, select bank0
  6040     0FC6  1E0C               	btfss	12,4	;volatile
  6041     0FC7  2FC9               	goto	u165_21
  6042     0FC8  2FCA               	goto	u165_20
  6043     0FC9                     u165_21:
  6044     0FC9  2FCC               	goto	i1l149
  6045     0FCA                     u165_20:
  6046     0FCA                     i1l1435:
  6047                           
  6048                           ;l6.c: 466: void __attribute__((picinterrupt(("")))) isr(void);l6.c: 467: {
  6049     0FCA  3045               	movlw	69
  6050     0FCB  0099               	movwf	25	;volatile
  6051     0FCC                     i1l149:	
  6052                           ;l6.c: 468:     if (PIR1bits.RCIF)
  6053                           
  6054                           
  6055                           ;l6.c: 469:     {
  6056     0FCC  300D               	movlw	13
  6057     0FCD  00F1               	movwf	??i1_Menu+1
  6058     0FCE  30FB               	movlw	251
  6059     0FCF  00F0               	movwf	??i1_Menu
  6060     0FD0                     u425_27:
  6061     0FD0  0BF0               	decfsz	??i1_Menu,f
  6062     0FD1  2FD0               	goto	u425_27
  6063     0FD2  0BF1               	decfsz	??i1_Menu+1,f
  6064     0FD3  2FD0               	goto	u425_27
  6065     0FD4  2FD5               	nop2
  6066     0FD5                     i1l1437:
  6067                           
  6068                           ;l6.c: 470: 
  6069     0FD5  1283               	bcf	3,5	;RP0=0, select bank0
  6070     0FD6  1303               	bcf	3,6	;RP1=0, select bank0
  6071     0FD7  1E0C               	btfss	12,4	;volatile
  6072     0FD8  2FDA               	goto	u166_21
  6073     0FD9  2FDB               	goto	u166_20
  6074     0FDA                     u166_21:
  6075     0FDA  2FDD               	goto	i1l150
  6076     0FDB                     u166_20:
  6077     0FDB                     i1l1439:
  6078                           
  6079                           ;l6.c: 471:         switch (RCREG);l6.c: 472:         {
  6080     0FDB  304E               	movlw	78
  6081     0FDC  0099               	movwf	25	;volatile
  6082     0FDD                     i1l150:	
  6083                           ;l6.c: 473:             case 49:
  6084                           
  6085                           
  6086                           ;l6.c: 474:                 ADCON0bits.GO = 1;
  6087     0FDD  300D               	movlw	13
  6088     0FDE  00F1               	movwf	??i1_Menu+1
  6089     0FDF  30FB               	movlw	251
  6090     0FE0  00F0               	movwf	??i1_Menu
  6091     0FE1                     u426_27:
  6092     0FE1  0BF0               	decfsz	??i1_Menu,f
  6093     0FE2  2FE1               	goto	u426_27
  6094     0FE3  0BF1               	decfsz	??i1_Menu+1,f
  6095     0FE4  2FE1               	goto	u426_27
  6096     0FE5  2FE6               	nop2
  6097     0FE6                     i1l1441:
  6098                           
  6099                           ;l6.c: 475:                 while(ADCON0bits.GO == 1);
  6100     0FE6  1283               	bcf	3,5	;RP0=0, select bank0
  6101     0FE7  1303               	bcf	3,6	;RP1=0, select bank0
  6102     0FE8  1E0C               	btfss	12,4	;volatile
  6103     0FE9  2FEB               	goto	u167_21
  6104     0FEA  2FEC               	goto	u167_20
  6105     0FEB                     u167_21:
  6106     0FEB  2FEE               	goto	i1l151
  6107     0FEC                     u167_20:
  6108     0FEC                     i1l1443:
  6109                           
  6110                           ;l6.c: 476:                 ADIF = 0;;l6.c: 477:                 TXREG = ADRESH;
  6111     0FEC  3041               	movlw	65
  6112     0FED  0099               	movwf	25	;volatile
  6113     0FEE                     i1l151:	
  6114                           ;l6.c: 478:                 _delay((unsigned long)((10)*(8000000/4000.0)));
  6115                           
  6116                           
  6117                           ;l6.c: 480:                 if (PIR1bits.TXIF)
  6118     0FEE  300D               	movlw	13
  6119     0FEF  00F1               	movwf	??i1_Menu+1
  6120     0FF0  30FB               	movlw	251
  6121     0FF1  00F0               	movwf	??i1_Menu
  6122     0FF2                     u427_27:
  6123     0FF2  0BF0               	decfsz	??i1_Menu,f
  6124     0FF3  2FF2               	goto	u427_27
  6125     0FF4  0BF1               	decfsz	??i1_Menu+1,f
  6126     0FF5  2FF2               	goto	u427_27
  6127     0FF6  2FF7               	nop2
  6128     0FF7                     i1l1445:
  6129                           
  6130                           ;l6.c: 481:                 {
  6131     0FF7  1283               	bcf	3,5	;RP0=0, select bank0
  6132     0FF8  1303               	bcf	3,6	;RP1=0, select bank0
  6133     0FF9  1E0C               	btfss	12,4	;volatile
  6134     0FFA  2FFC               	goto	u168_21
  6135     0FFB  2FFD               	goto	u168_20
  6136     0FFC                     u168_21:
  6137     0FFC  2FFF               	goto	i1l153
  6138     0FFD                     u168_20:
  6139     0FFD                     i1l1447:
  6140                           
  6141                           ;l6.c: 482:                     TXREG = 13;;l6.c: 483:                 }
  6142     0FFD  300D               	movlw	13
  6143     0FFE  0099               	movwf	25	;volatile
  6144     0FFF                     i1l153:
  6145     0FFF  0008               	return
  6146     1000                     __end_ofi1_Menu:
  6147     007E                     btemp	set	126	;btemp
  6148     007E                     wtemp0	set	126
  6149                           
  6150                           	psect	idloc
  6151                           
  6152                           ;Config register IDLOC0 @ 0x2000
  6153                           ;	unspecified, using default values
  6154     2000                     	org	8192
  6155     2000  3FFF               	dw	16383
  6156                           
  6157                           ;Config register IDLOC1 @ 0x2001
  6158                           ;	unspecified, using default values
  6159     2001                     	org	8193
  6160     2001  3FFF               	dw	16383
  6161                           
  6162                           ;Config register IDLOC2 @ 0x2002
  6163                           ;	unspecified, using default values
  6164     2002                     	org	8194
  6165     2002  3FFF               	dw	16383
  6166                           
  6167                           ;Config register IDLOC3 @ 0x2003
  6168                           ;	unspecified, using default values
  6169     2003                     	org	8195
  6170     2003  3FFF               	dw	16383
  6171                           
  6172                           	psect	config
  6173                           
  6174                           ;Config register CONFIG1 @ 0x2007
  6175                           ;	Oscillator Selection bits
  6176                           ;	FOSC = INTRC_NOCLKOUT, INTOSCIO oscillator: I/O function on RA6/OSC2/CLKOUT pin, I/O f
      +                          unction on RA7/OSC1/CLKIN
  6177                           ;	Watchdog Timer Enable bit
  6178                           ;	WDTE = OFF, WDT disabled and can be enabled by SWDTEN bit of the WDTCON register
  6179                           ;	Power-up Timer Enable bit
  6180                           ;	PWRTE = ON, PWRT enabled
  6181                           ;	RE3/MCLR pin function select bit
  6182                           ;	MCLRE = OFF, RE3/MCLR pin function is digital input, MCLR internally tied to VDD
  6183                           ;	Code Protection bit
  6184                           ;	CP = OFF, Program memory code protection is disabled
  6185                           ;	Data Code Protection bit
  6186                           ;	CPD = OFF, Data memory code protection is disabled
  6187                           ;	Brown Out Reset Selection bits
  6188                           ;	BOREN = OFF, BOR disabled
  6189                           ;	Internal External Switchover bit
  6190                           ;	IESO = OFF, Internal/External Switchover mode is disabled
  6191                           ;	Fail-Safe Clock Monitor Enabled bit
  6192                           ;	FCMEN = OFF, Fail-Safe Clock Monitor is disabled
  6193                           ;	Low Voltage Programming Enable bit
  6194                           ;	LVP = ON, RB3/PGM pin has PGM function, low voltage programming enabled
  6195                           ;	In-Circuit Debugger Mode bit
  6196                           ;	DEBUG = 0x1, unprogrammed default
  6197     2007                     	org	8199
  6198     2007  30C4               	dw	12484
  6199                           
  6200                           ;Config register CONFIG2 @ 0x2008
  6201                           ;	Brown-out Reset Selection bit
  6202                           ;	BOR4V = BOR40V, Brown-out Reset set to 4.0V
  6203                           ;	Flash Program Memory Self Write Enable bits
  6204                           ;	WRT = OFF, Write protection off
  6205     2008                     	org	8200
  6206     2008  3FFF               	dw	16383

Data Sizes:
    Strings     0
    Constant    0
    Data        49
    BSS         2
    Persistent  0
    Stack       0

Auto Spaces:
    Space          Size  Autos    Used
    COMMON           14      7      10
    BANK0            80      3      51
    BANK1            80      0       0
    BANK3            96      0       0
    BANK2            96      0       0

Pointer List with Targets:

    None.

Critical Paths under _main in COMMON

    None.

Critical Paths under _isr in COMMON

    _isr->i1_Menu

Critical Paths under _main in BANK0

    _main->_Menu

Critical Paths under _isr in BANK0

    None.

Critical Paths under _main in BANK1

    None.

Critical Paths under _isr in BANK1

    None.

Critical Paths under _main in BANK3

    None.

Critical Paths under _isr in BANK3

    None.

Critical Paths under _main in BANK2

    None.

Critical Paths under _isr in BANK2

    None.

Call Graph Tables:

 ---------------------------------------------------------------------------------
 (Depth) Function   	        Calls       Base Space   Used Autos Params    Refs
 ---------------------------------------------------------------------------------
 (0) _main                                                 1     1      0       0
                                              2 BANK0      1     1      0
                               _Menu
 ---------------------------------------------------------------------------------
 (1) _Menu                                                 2     2      0       0
                                              0 BANK0      2     2      0
 ---------------------------------------------------------------------------------
 Estimated maximum stack depth 1
 ---------------------------------------------------------------------------------
 (Depth) Function   	        Calls       Base Space   Used Autos Params    Refs
 ---------------------------------------------------------------------------------
 (2) _isr                                                  5     5      0       0
                                              2 COMMON     5     5      0
                             i1_Menu
 ---------------------------------------------------------------------------------
 (3) i1_Menu                                               2     2      0       0
                                              0 COMMON     2     2      0
 ---------------------------------------------------------------------------------
 Estimated maximum stack depth 3
 ---------------------------------------------------------------------------------

 Call Graph Graphs:

 _main (ROOT)
   _Menu

 _isr (ROOT)
   i1_Menu

 Address spaces:
Name               Size   Autos  Total    Cost      Usage
BANK3               60      0       0       9        0.0%
BITBANK3            60      0       0       8        0.0%
SFR3                 0      0       0       4        0.0%
BITSFR3              0      0       0       4        0.0%
BANK2               60      0       0      11        0.0%
BITBANK2            60      0       0      10        0.0%
SFR2                 0      0       0       5        0.0%
BITSFR2              0      0       0       5        0.0%
BANK1               50      0       0       7        0.0%
BITBANK1            50      0       0       6        0.0%
SFR1                 0      0       0       2        0.0%
BITSFR1              0      0       0       2        0.0%
BANK0               50      3      33       5       63.7%
BITBANK0            50      0       0       4        0.0%
SFR0                 0      0       0       1        0.0%
BITSFR0              0      0       0       1        0.0%
COMMON               E      7       A       1       71.4%
BITCOMMON            E      0       0       0        0.0%
CODE                 0      0       0       0        0.0%
DATA                 0      0      3D      12        0.0%
ABS                  0      0      3D       3        0.0%
NULL                 0      0       0       0        0.0%
STACK                0      0       0       2        0.0%
EEDATA             100      0       0       0        0.0%


Microchip Technology PIC Macro Assembler V2.40 build 20220703182018 
Symbol Table                                                                                   Fri Nov 11 10:22:17 2022

                      pc 0002                       l70 003D                       l71 004F  
                     l80 00E5                       l72 0061                       l81 00F7  
                     l73 0073                       l90 0199                       l82 0109  
                     l74 0085                       l91 01AB                       l83 011B  
                     l75 0097                       l92 01BD                       l84 012D  
                     l76 00A9                       l93 01CF                       l85 013F  
                     l77 00BB                       l86 0151                       l78 00CD  
                     l95 01E7                       l87 0163                       l96 01F9  
                     l88 0175                       l97 020B                       l89 0187  
                     l98 021D                       l99 022F                       fsr 0004  
                    l100 0241                      l101 0253                      l110 02F5  
                    l102 0265                      l111 0307                      l103 0277  
                    l120 03A9                      l112 0319                      l104 0289  
                    l121 03BB                      l113 032B                      l105 029B  
                    l130 045D                      l122 03CD                      l114 033D  
                    l106 02AD                      l131 046F                      l123 03DF  
                    l115 034F                      l107 02BF                      l140 0511  
                    l132 0481                      l124 03F1                      l116 0361  
                    l108 02D1                      l141 0523                      l133 0493  
                    l125 0403                      l117 0373                      l109 02E3  
                    l150 05C5                      l142 0535                      l134 04A5  
                    l126 0415                      l118 0385                      l151 05D7  
                    l143 0547                      l135 04B7                      l127 0427  
                    l119 0397                      l144 0559                      l136 04C9  
                    l128 0439                      l153 05E9                      l145 056B  
                    l137 04DB                      l129 044B                      l146 057D  
                    l138 04ED                      l147 058F                      l139 04FF  
                    l148 05A1                      l180 06BE                      l149 05B3  
                    l181 06BE                      l177 0691                      l179 0695  
                    _Boo 0078                      _WTS 0077                      _isr 05EA  
                    fsr0 0004                      indf 0000                     l1601 0095  
                   l1611 00C5                     l1603 00A1                     l1701 023F  
                   l1621 00E3                     l1613 00CB                     l1605 00A7  
                   l1711 026F                     l1703 024B                     l1631 0113  
                   l1623 00EF                     l1615 00D7                     l1607 00B3  
                   l1801 0401                     l1721 0299                     l1713 0275  
                   l1705 0251                     l1641 013D                     l1633 0119  
                   l1625 00F5                     l1617 00DD                     l1609 00B9  
                   l1811 0431                     l1803 040D                     l1731 02C9  
                   l1723 02A5                     l1715 0281                     l1707 025D  
                   l1651 016D                     l1643 0149                     l1635 0125  
                   l1627 0101                     l1619 00DF                     l1901 05C3  
                   l1821 045B                     l1813 0437                     l1805 0413  
                   l1741 02F3                     l1733 02CF                     l1725 02AB  
                   l1717 0287                     l1709 0263                     l1661 0197  
                   l1653 0173                     l1645 014F                     l1637 012B  
                   l1629 0107                     l1581 003B                     l1903 05CF  
                   l1831 048B                     l1823 0467                     l1815 0443  
                   l1807 041F                     l1751 0323                     l1743 02FF  
                   l1735 02DB                     l1727 02B7                     l1719 0293  
                   l1671 01C7                     l1663 01A3                     l1655 017F  
                   l1647 015B                     l1639 0137                     l1591 006B  
                   l1583 0047                     l1911 065F                     l1905 05D5  
                   l1841 04B5                     l1833 0491                     l1825 046D  
                   l1817 0449                     l1809 0425                     l1761 034D  
                   l1753 0329                     l1745 0305                     l1737 02E1  
                   l1729 02BD                     l1681 01E5                     l1673 01CD  
                   l1665 01A9                     l1657 0185                     l1649 0161  
                   l1593 0071                     l1585 004D                     l1577 002B  
                   l1921 0676                     l1913 0665                     l1907 05E1  
                   l1851 04E5                     l1843 04C1                     l1835 049D  
                   l1827 0479                     l1819 0455                     l1771 037D  
                   l1763 0359                     l1755 0335                     l1747 0311  
                   l1739 02ED                     l1691 0215                     l1683 01F1  
                   l1675 01D9                     l1667 01B5                     l1659 0191  
                   l1595 007D                     l1587 0059                     l1579 0035  
                   l1931 0680                     l1923 067A                     l1915 066F  
                   l1909 05E7                     l1861 050F                     l1853 04EB  
                   l1845 04C7                     l1837 04A3                     l1829 047F  
                   l1781 03A7                     l1773 0383                     l1765 035F  
                   l1757 033B                     l1749 0317                     l1693 021B  
                   l1685 01F7                     l1677 01DF                     l1669 01BB  
                   l1597 0083                     l1589 005F                     l1941 068B  
                   l1933 0683                     l1925 067B                     l1917 0672  
                   l1871 053F                     l1863 051B                     l1855 04F7  
                   l1847 04D3                     l1839 04AF                     l1791 03D7  
                   l1783 03B3                     l1775 038F                     l1767 036B  
                   l1759 0347                     l1695 0227                     l1687 0203  
                   l1679 01E1                     l1599 008F                     l1951 06A5  
                   l1943 068E                     l1935 0686                     l1927 067E  
                   l1919 0673                     l1881 0569                     l1873 0545  
                   l1865 0521                     l1857 04FD                     l1849 04D9  
                   l1793 03DD                     l1785 03B9                     l1777 0395  
                   l1769 0371                     l1697 022D                     l1689 0209  
                   l1961 06AE                     l1953 06A6                     l1945 0690  
                   l1937 0689                     l1929 067F                     l1891 0599  
                   l1883 0575                     l1875 0551                     l1867 052D  
                   l1859 0509                     l1795 03E9                     l1787 03C5  
                   l1779 03A1                     l1699 0239                     l1971 06B9  
                   l1963 06AF                     l1955 06A9                     l1947 069A  
                   l1939 068A                     l1893 059F                     l1885 057B  
                   l1877 0557                     l1869 0533                     l1797 03EF  
                   l1789 03CB                     l1965 06B0                     l1957 06AA  
                   l1949 06A2                     l1895 05AB                     l1887 0587  
                   l1879 0563                     l1799 03FB                     l1967 06B1  
                   l1959 06AB                     l1897 05B1                     l1889 058D  
                   l1969 06B2                     l1899 05BD                     _ADIF 0066  
                   ?_isr 0070                     u2000 01BB                     u2001 01BA  
                   u2010 01CD                     u2011 01CC                     u2100 0263  
                   u2020 01DF                     u2101 0262                     u2021 01DE  
                   u2110 0275                     u2030 01E5                     u2111 0274  
                   u2031 01E4                     u2200 0317                     u2120 0287  
                   u2040 01F7                     u2201 0316                     u2121 0286  
                   u2041 01F6                     u2210 0329                     u2130 0299  
                   u2050 0209                     u2211 0328                     u2131 0298  
                   u2051 0208                     u2300 03CB                     u2220 033B  
                   u2140 02AB                     u2060 021B                     u2301 03CA  
                   u2221 033A                     u2141 02AA                     u2061 021A  
                   u2310 03DD                     u2230 034D                     u2150 02BD  
                   u2070 022D                     u2311 03DC                     u2231 034C  
                   u3007 02D7                     u2151 02BC                     u2071 022C  
                   u2400 047F                     u2320 03EF                     u2240 035F  
                   u2160 02CF                     u2080 023F                     u2401 047E  
                   u2321 03EE                     u2241 035E                     u3017 02E9  
                   u2161 02CE                     u2081 023E                     u2410 0491  
                   u2330 0401                     u2250 0371                     u2170 02E1  
                   u2090 0251                     u2411 0490                     u2331 0400  
                   u3107 038B                     u2251 0370                     u3027 02FB  
                   u2171 02E0                     u2091 0250                     u2500 0533  
                   u2420 04A3                     u2340 0413                     u2260 0383  
                   u2180 02F3                     u2501 0532                     u2421 04A2  
                   u2341 0412                     u3117 039D                     u2261 0382  
                   u3037 030D                     u2181 02F2                     u2510 0545  
                   u2430 04B5                     u2350 0425                     u2270 0395  
                   u2190 0305                     u2511 0544                     u2431 04B4  
                   u3207 043F                     u2351 0424                     u3127 03AF  
                   u2271 0394                     u3047 031F                     u2191 0304  
                   u2600 05E7                     u2520 0557                     u2440 04C7  
                   u2360 0437                     u2280 03A7                     u1800 005F  
                   u2601 05E6                     u2521 0556                     u2441 04C6  
                   u3217 0451                     u2361 0436                     u3137 03C1  
                   u2281 03A6                     u3057 0331                     u1801 005E  
                   u2530 0569                     u2450 04D9                     u2370 0449  
                   u2290 03B9                     u1810 0071                     u2610 0695  
                   u2531 0568                     u3307 04F3                     u2451 04D8  
                   u3227 0463                     u2371 0448                     u3147 03D3  
                   u2291 03B8                     u3067 0343                     u1811 0070  
                   u2611 0694                     u2540 057B                     u2460 04EB  
                   u2380 045B                     u1900 0107                     u1820 0083  
                   u2541 057A                     u3317 0505                     u2461 04EA  
                   u3237 0475                     u2381 045A                     u3157 03E5  
                   u3077 0355                     u1901 0106                     u1821 0082  
                   u2550 058D                     u2470 04FD                     u2390 046D  
                   u1910 0119                     u1830 0095                     u3407 05A7  
                   u2551 058C                     u3327 0517                     u2471 04FC  
                   u3247 0487                     u2391 046C                     u3167 03F7  
                   u3087 0367                     u1911 0118                     u1831 0094  
                   u2560 059F                     u2480 050F                     u1920 012B  
                   u1840 00A7                     u3417 05B9                     u2561 059E  
                   u3337 0529                     u2481 050E                     u3257 0499  
                   u3177 0409                     u3097 0379                     u1921 012A  
                   u1841 00A6                     u2570 05B1                     u2490 0521  
                   u1930 013D                     u1850 00B9                     u3427 05CB  
                   u2571 05B0                     u3347 053B                     u2491 0520  
                   u3267 04AB                     u3187 041B                     u1931 013C  
                   u1851 00B8                     u2707 00AF                     u2627 06B6  
                   u2580 05C3                     u1940 014F                     u1860 00CB  
                   u1780 003B                     u3437 05DD                     u2581 05C2  
                   u3357 054D                     u3277 04BD                     u3197 042D  
                   u1941 014E                     u1861 00CA                     u2717 00C1  
                   u1781 003A                     u2637 0031                     u2590 05D5  
                   u1950 0161                     u1870 00DD                     u1790 004D  
                   u2591 05D4                     u3367 055F                     u3287 04CF  
                   u2807 0169                     u1951 0160                     u1871 00DC  
                   u2727 00D3                     u1791 004C                     u2647 0043  
                   u1960 0173                     u1880 00E3                     u3377 0571  
                   u3297 04E1                     u2817 017B                     u1961 0172  
                   u2737 00EB                     u1881 00E2                     u2657 0055  
                   u1970 0185                     u1890 00F5                     u3387 0583  
                   u2907 0223                     u2827 018D                     u1971 0184  
                   u2747 00FD                     u1891 00F4                     u2667 0067  
                   u1980 0197                     u3397 0595                     u2917 0235  
                   u2837 019F                     u1981 0196                     u2757 010F  
                   u2677 0079                     u1990 01A9                     u2927 0247  
                   u2847 01B1                     u1991 01A8                     u2767 0121  
                   u2687 008B                     u2937 0259                     u2857 01C3  
                   u2777 0133                     u2697 009D                     u2947 026B  
                   u2867 01D5                     u2787 0145                     u2957 027D  
                   u2877 01ED                     u2797 0157                     i1l70 0AA3  
                   i1l71 0AB4                     u2967 028F                     u2887 01FF  
                   i1l80 0B42                     i1l72 0AC5                     i1l81 0B53  
                   i1l73 0AD6                     u2977 02A1                     u2897 0211  
                   i1l90 0BEC                     i1l82 0B64                     i1l74 0AE7  
                   i1l91 0BFD                     i1l83 0B75                     i1l75 0AF8  
                   u2987 02B3                     i1l92 0C0E                     i1l84 0B86  
                   i1l76 0B09                     i1l93 0C1F                     i1l85 0B97  
                   i1l77 0B1A                     u2997 02C5                     i1l86 0BA8  
                   i1l78 0B2B                     i1l95 0C36                     i1l87 0BB9  
                   i1l96 0C47                     i1l88 0BCA                     i1l97 0C58  
                   i1l89 0BDB                     i1l98 0C69                     i1l99 0C7A  
                   _Menu 002B                     _main 065F                     btemp 007E  
                   start 000E                    ??_isr 0072                    ?_Menu 0070  
                  ?_main 0070                    _ANSEL 0188                    i1l100 0C8B  
                  i1l101 0C9C                    i1l110 0D35                    i1l102 0CAD  
                  i1l111 0D46                    i1l103 0CBE                    i1l120 0DDF  
                  i1l112 0D57                    i1l104 0CCF                    i1l121 0DF0  
                  i1l113 0D68                    i1l105 0CE0                    i1l130 0E89  
                  i1l122 0E01                    i1l114 0D79                    i1l106 0CF1  
                  i1l131 0E9A                    i1l123 0E12                    i1l115 0D8A  
                  i1l107 0D02                    i1l140 0F33                    i1l132 0EAB  
                  i1l124 0E23                    i1l116 0D9B                    i1l108 0D13  
                  i1l141 0F44                    i1l133 0EBC                    i1l125 0E34  
                  i1l117 0DAC                    i1l109 0D24                    i1l150 0FDD  
                  i1l142 0F55                    i1l134 0ECD                    i1l126 0E45  
                  i1l118 0DBD                    i1l151 0FEE                    i1l143 0F66  
                  i1l135 0EDE                    i1l127 0E56                    i1l119 0DCE  
                  i1l144 0F77                    i1l136 0EEF                    i1l128 0E67  
                  i1l160 05F1                    i1l153 0FFF                    i1l145 0F88  
                  i1l137 0F00                    i1l129 0E78                    i1l161 05F2  
                  i1l146 0F99                    i1l138 0F11                    i1l170 062E  
                  i1l147 0FAA                    i1l139 0F22                    i1l163 05F6  
                  i1l148 0FBB                    i1l172 0656                    i1l149 0FCC  
                  i1l167 0610                    _RCREG 001A                    _SPBRG 0099  
                  _PORTB 0006                    _TRISA 0085                    _TRISB 0086  
                  u90_20 0AE5                    u90_21 0AE4                    u91_20 0AF6  
                  u91_21 0AF5                    u92_20 0B07                    u92_21 0B06  
                  u93_20 0B18                    u93_21 0B17                    u94_20 0B29  
                  u86_20 0AA1                    u94_21 0B28                    u86_21 0AA0  
                  u95_20 0B3A                    u87_20 0AB2                    u95_21 0B39  
                  u87_21 0AB1                    u96_20 0B40                    u88_20 0AC3  
                  u96_21 0B3F                    u88_21 0AC2                    u97_20 0B51  
                  u89_20 0AD4                    u97_21 0B50                    u89_21 0AD3  
                  _TXREG 0019                    u98_20 0B62                    u98_21 0B61  
                  u99_20 0B73                    u99_21 0B72                    pclath 000A  
                  status 0003                    wtemp0 007E          __initialization 0011  
           __end_of_Menu 05EA             __end_of_main 06C2                   ??_Menu 0050  
                 ??_main 0052                   _ADRESH 001E                   _ANSELH 0189  
                 u100_20 0B84                   u100_21 0B83                   u101_20 0B95  
                 u101_21 0B94                   u110_20 0C2E                   u102_20 0BA6  
                 u110_21 0C2D                   i1l1201 0BF5                   u102_21 0BA5  
                 i1l1121 0AAC                   i1l1211 0C1D                   i1l1203 0BFB  
                 i1l1131 0AD4                   i1l1123 0AB2                   i1l1115 0A92  
                 i1l1301 0D93                   i1l1221 0C3F                   i1l1213 0C28  
                 i1l1205 0C06                   i1l1141 0B01                   i1l1133 0ADF  
                 i1l1125 0ABD                   i1l1117 0A9B                   i1l1311 0DBB  
                 i1l1303 0D99                   i1l1231 0C67                   i1l1223 0C45  
                 i1l1215 0C2E                   i1l1207 0C0C                   i1l1151 0B29  
                 i1l1143 0B07                   i1l1135 0AE5                   i1l1127 0AC3  
                 i1l1119 0AA1                   u111_20 0C34                   u103_20 0BB7  
                 i1l1401 0F3C                   i1l1321 0DE8                   i1l1313 0DC6  
                 i1l1305 0DA4                   i1l1241 0C94                   i1l1233 0C72  
                 i1l1225 0C50                   u111_21 0C33                   i1l1217 0C30  
                 i1l1209 0C17                   u103_21 0BB6                   i1l1161 0B4B  
                 i1l1153 0B34                   i1l1145 0B12                   i1l1137 0AF0  
                 i1l1129 0ACE                   i1l1411 0F64                   i1l1403 0F42  
                 i1l1331 0E10                   i1l1323 0DEE                   i1l1315 0DCC  
                 i1l1307 0DAA                   i1l1251 0CBC                   i1l1243 0C9A  
                 i1l1235 0C78                   i1l1227 0C56                   i1l1219 0C34  
                 i1l1171 0B73                   i1l1163 0B51                   i1l1155 0B3A  
                 i1l1147 0B18                   i1l1139 0AF6                   i1l1421 0F91  
                 i1l1413 0F6F                   i1l1405 0F4D                   i1l1341 0E3D  
                 i1l1333 0E1B                   i1l1325 0DF9                   i1l1317 0DD7  
                 i1l1309 0DB5                   i1l1261 0CE9                   i1l1253 0CC7  
                 i1l1245 0CA5                   i1l1237 0C83                   i1l1229 0C61  
                 i1l1181 0BA0                   i1l1173 0B7E                   i1l1165 0B5C  
                 i1l1157 0B3C                   i1l1149 0B23                   i1l1431 0FB9  
                 i1l1423 0F97                   i1l1415 0F75                   i1l1407 0F53  
                 i1l1351 0E65                   i1l1343 0E43                   i1l1335 0E21  
                 i1l1327 0DFF                   i1l1319 0DDD                   i1l1271 0D11  
                 i1l1263 0CEF                   i1l1255 0CCD                   i1l1247 0CAB  
                 i1l1239 0C89                   i1l1191 0BC8                   i1l1183 0BA6  
                 i1l1175 0B84                   i1l1167 0B62                   i1l1159 0B40  
                 u120_20 0CCD                   u112_20 0C45                   u104_20 0BC8  
                 i1l1441 0FE6                   i1l1433 0FC4                   i1l1425 0FA2  
                 i1l1417 0F80                   i1l1409 0F5E                   i1l1361 0E92  
                 i1l1353 0E70                   i1l1345 0E4E                   i1l1337 0E2C  
                 i1l1329 0E0A                   i1l1281 0D3E                   i1l1273 0D1C  
                 i1l1265 0CFA                   i1l1257 0CD8                   u120_21 0CCC  
                 i1l1249 0CB6                   u112_21 0C44                   i1l1193 0BD3  
                 u104_21 0BC7                   i1l1185 0BB1                   i1l1177 0B8F  
                 i1l1169 0B6D                   i1l1443 0FEC                   i1l1435 0FCA  
                 i1l1427 0FA8                   i1l1419 0F86                   i1l1371 0EBA  
                 i1l1363 0E98                   i1l1355 0E76                   i1l1347 0E54  
                 i1l1339 0E32                   i1l1291 0D66                   i1l1283 0D44  
                 i1l1275 0D22                   i1l1267 0D00                   i1l1259 0CDE  
                 i1l1195 0BD9                   i1l1187 0BB7                   i1l1179 0B95  
                 i1l1445 0FF7                   i1l1437 0FD5                   i1l1429 0FB3  
                 i1l1381 0EE7                   i1l1373 0EC5                   i1l1365 0EA3  
                 i1l1357 0E81                   i1l1349 0E5F                   i1l1293 0D71  
                 i1l1285 0D4F                   i1l1277 0D2D                   i1l1269 0D0B  
                 i1l1197 0BE4                   i1l1189 0BC2                   i1l1461 05F7  
                 i1l1447 0FFD                   i1l1439 0FDB                   i1l1391 0F0F  
                 i1l1383 0EED                   i1l1375 0ECB                   i1l1367 0EA9  
                 i1l1359 0E87                   i1l1295 0D77                   i1l1287 0D55  
                 i1l1279 0D33                   i1l1199 0BEA                   i1l1471 0618  
                 i1l1463 0602                   u121_20 0CDE                   u113_20 0C56  
                 u105_20 0BD9                   i1l1393 0F1A                   i1l1385 0EF8  
                 i1l1377 0ED6                   i1l1369 0EB4                   i1l1297 0D82  
                 i1l1289 0D60                   u121_21 0CDD                   u113_21 0C55  
                 u105_21 0BD8                   i1l1481 063D                   i1l1473 061D  
                 i1l1465 0608                   i1l1457 05EA                   i1l1395 0F20  
                 i1l1387 0EFE                   i1l1379 0EDC                   i1l1299 0D88  
                 i1l1483 063F                   i1l1475 0626                   i1l1467 060A  
                 i1l1397 0F2B                   i1l1389 0F09                   i1l1485 0644  
                 i1l1477 062C                   i1l1469 0614                   i1l1399 0F31  
                 i1l1479 0637                   u130_20 0D77                   u122_20 0CEF  
                 u114_20 0C67                   u106_20 0BEA                   u130_21 0D76  
                 u122_21 0CEE                   u114_21 0C66                   u106_21 0BE9  
                 i1l1489 0646                   u131_20 0D88                   u123_20 0D00  
                 u115_20 0C78                   u107_20 0BFB                   u131_21 0D87  
                 u123_21 0CFF                   u115_21 0C77                   u107_21 0BFA  
                 u140_20 0E21                   u132_20 0D99                   u124_20 0D11  
                 u116_20 0C89                   u108_20 0C0C                   u140_21 0E20  
                 u132_21 0D98                   u124_21 0D10                   u116_21 0C88  
                 u108_21 0C0B                   i1l1993 064E                   u141_20 0E32  
                 u133_20 0DAA                   u125_20 0D22                   u117_20 0C9A  
                 u109_20 0C1D                   u141_21 0E31                   u133_21 0DA9  
                 u125_21 0D21                   u117_21 0C99                   u109_21 0C1C  
                 u150_20 0ECB                   u142_20 0E43                   u134_20 0DBB  
                 u126_20 0D33                   u118_20 0CAB                   u150_21 0ECA  
                 u142_21 0E42                   u134_21 0DBA                   u126_21 0D32  
                 u118_21 0CAA                   u151_20 0EDC                   u143_20 0E54  
                 u135_20 0DCC                   u127_20 0D44                   u119_20 0CBC  
                 u151_21 0EDB                   u143_21 0E53                   u135_21 0DCB  
                 u127_21 0D43                   u119_21 0CBB                   u160_20 0F75  
                 u152_20 0EED                   u144_20 0E65                   u136_20 0DDD  
                 u128_20 0D55                   u160_21 0F74                   u152_21 0EEC  
                 u144_21 0E64                   u136_21 0DDC                   u128_21 0D54  
                 u400_27 0E27                   u161_20 0F86                   u153_20 0EFE  
                 u145_20 0E76                   u137_20 0DEE                   u129_20 0D66  
                 u161_21 0F85                   u153_21 0EFD                   u145_21 0E75  
                 u137_21 0DED                   u129_21 0D65                   u401_27 0E38  
                 u162_20 0F97                   u154_20 0F0F                   u146_20 0E87  
                 u138_20 0DFF                   u170_20 05F0                   u162_21 0F96  
                 u154_21 0F0E                   u146_21 0E86                   u138_21 0DFE  
                 u170_21 05EF                   u410_27 0ED1                   u402_27 0E49  
                 u163_20 0FA8                   u155_20 0F20                   u147_20 0E98  
                 u139_20 0E10                   u171_20 05F6                   u163_21 0FA7  
                 u155_21 0F1F                   u147_21 0E97                   u139_21 0E0F  
                 u171_21 05F5                   u411_27 0EE2                   u403_27 0E5A  
                 u164_20 0FB9                   u156_20 0F31                   u148_20 0EA9  
                 u172_20 0608                   u164_21 0FB8                   u156_21 0F30  
                 u148_21 0EA8                   u172_21 0607                   u420_27 0F7B  
                 u412_27 0EF3                   u404_27 0E6B                   u165_20 0FCA  
                 u157_20 0F42                   u149_20 0EBA                   u173_20 0614  
                 u165_21 0FC9                   u157_21 0F41                   u149_21 0EB9  
                 u173_21 0613                   u421_27 0F8C                   u413_27 0F04  
                 u405_27 0E7C                   u166_20 0FDB                   u158_20 0F53  
                 u174_20 061D                   u166_21 0FDA                   u158_21 0F52  
                 u174_21 061C                   u422_27 0F9D                   u414_27 0F15  
                 u406_27 0E8D                   u350_27 0AC9                   u167_20 0FEC  
                 u159_20 0F64                   u175_20 062C                   u167_21 0FEB  
                 u159_21 0F63                   u175_21 062B                   u423_27 0FAE  
                 u415_27 0F26                   u407_27 0E9E                   u351_27 0ADA  
                 u168_20 0FFD                   u176_20 063D                   u168_21 0FFC  
                 u176_21 063C                   u424_27 0FBF                   u416_27 0F37  
                 u408_27 0EAF                   u360_27 0B79                   u352_27 0AEB  
                 u344_27 05FD                   u425_27 0FD0                   u417_27 0F48  
                 u409_27 0EC0                   u361_27 0B8A                   u353_27 0AFC  
                 u345_27 0621                   u426_27 0FE1                   u418_27 0F59  
                 u370_27 0C23                   u362_27 0B9B                   u354_27 0B0D  
                 u346_27 0632                   u427_27 0FF2                   u419_27 0F6A  
                 u371_27 0C3A                   u363_27 0BAC                   u355_27 0B1E  
                 u347_27 0A96                   u380_27 0CD3                   u372_27 0C4B  
                 u364_27 0BBD                   u356_27 0B2F                   u348_27 0AA7  
                 u381_27 0CE4                   u373_27 0C5C                   u365_27 0BCE  
                 u357_27 0B46                   u349_27 0AB8                   u390_27 0D7D  
                 u382_27 0CF5                   u374_27 0C6D                   u366_27 0BDF  
                 u358_27 0B57                   u391_27 0D8E                   u383_27 0D06  
                 u375_27 0C7E                   u367_27 0BF0                   u359_27 0B68  
                 u392_27 0D9F                   u384_27 0D17                   u376_27 0C8F  
                 u368_27 0C01                   u393_27 0DB0                   u385_27 0D28  
                 u377_27 0CA0                   u369_27 0C12                   u394_27 0DC1  
                 u386_27 0D39                   u378_27 0CB1                   u395_27 0DD2  
                 u387_27 0D4A                   u379_27 0CC2                   u396_27 0DE3  
                 u388_27 0D5B                   u397_27 0DF4                   u389_27 0D6C  
                 u398_27 0E05                   u399_27 0E16                   _SPBRGH 009A  
                 i1_Menu 0A92             __pdataCOMMON 0079                   saved_w 007E  
__end_of__initialization 0027           __pcstackCOMMON 0070             __pidataBANK0 06C2  
                ?i1_Menu 0070               __pmaintext 065F               __pintentry 0004  
                _Phrase1 0020                  __ptext1 002B                  __ptext2 05EA  
                __ptext3 0A92                _T2CONbits 0012     end_of_initialization 0027  
              _RCSTAbits 0018                _TRISCbits 0087                _TXSTAbits 0098  
         __end_ofi1_Menu 1000            __pidataCOMMON 0705              _BAUDCTLbits 0187  
              _ConstantI 0079      start_initialization 0011              __end_of_isr 065F  
               ??i1_Menu 0070               init_fetch0 06F2              __pdataBANK0 0020  
            __pbssCOMMON 0077                ___latbits 0002            __pcstackBANK0 0050  
      interrupt_function 0004                 _PIE1bits 008C                 _PIR1bits 000C  
             _ADCON0bits 001F               _ADCON1bits 009F               _INTCONbits 000B  
               init_ram0 06F6                 intlevel1 0000               _OSCCONbits 008F  
